
ctarget:     file format elf64-x86-64


Disassembly of section .init:

0000000000401000 <_init>:
  401000:	f3 0f 1e fa          	endbr64 
  401004:	48 83 ec 08          	sub    $0x8,%rsp
  401008:	48 8b 05 e9 5f 00 00 	mov    0x5fe9(%rip),%rax        # 406ff8 <__gmon_start__>
  40100f:	48 85 c0             	test   %rax,%rax
  401012:	74 02                	je     401016 <_init+0x16>
  401014:	ff d0                	call   *%rax
  401016:	48 83 c4 08          	add    $0x8,%rsp
  40101a:	c3                   	ret    

Disassembly of section .plt:

0000000000401020 <.plt>:
  401020:	ff 35 e2 5f 00 00    	push   0x5fe2(%rip)        # 407008 <_GLOBAL_OFFSET_TABLE_+0x8>
  401026:	f2 ff 25 e3 5f 00 00 	bnd jmp *0x5fe3(%rip)        # 407010 <_GLOBAL_OFFSET_TABLE_+0x10>
  40102d:	0f 1f 00             	nopl   (%rax)
  401030:	f3 0f 1e fa          	endbr64 
  401034:	68 00 00 00 00       	push   $0x0
  401039:	f2 e9 e1 ff ff ff    	bnd jmp 401020 <.plt>
  40103f:	90                   	nop
  401040:	f3 0f 1e fa          	endbr64 
  401044:	68 01 00 00 00       	push   $0x1
  401049:	f2 e9 d1 ff ff ff    	bnd jmp 401020 <.plt>
  40104f:	90                   	nop
  401050:	f3 0f 1e fa          	endbr64 
  401054:	68 02 00 00 00       	push   $0x2
  401059:	f2 e9 c1 ff ff ff    	bnd jmp 401020 <.plt>
  40105f:	90                   	nop
  401060:	f3 0f 1e fa          	endbr64 
  401064:	68 03 00 00 00       	push   $0x3
  401069:	f2 e9 b1 ff ff ff    	bnd jmp 401020 <.plt>
  40106f:	90                   	nop
  401070:	f3 0f 1e fa          	endbr64 
  401074:	68 04 00 00 00       	push   $0x4
  401079:	f2 e9 a1 ff ff ff    	bnd jmp 401020 <.plt>
  40107f:	90                   	nop
  401080:	f3 0f 1e fa          	endbr64 
  401084:	68 05 00 00 00       	push   $0x5
  401089:	f2 e9 91 ff ff ff    	bnd jmp 401020 <.plt>
  40108f:	90                   	nop
  401090:	f3 0f 1e fa          	endbr64 
  401094:	68 06 00 00 00       	push   $0x6
  401099:	f2 e9 81 ff ff ff    	bnd jmp 401020 <.plt>
  40109f:	90                   	nop
  4010a0:	f3 0f 1e fa          	endbr64 
  4010a4:	68 07 00 00 00       	push   $0x7
  4010a9:	f2 e9 71 ff ff ff    	bnd jmp 401020 <.plt>
  4010af:	90                   	nop
  4010b0:	f3 0f 1e fa          	endbr64 
  4010b4:	68 08 00 00 00       	push   $0x8
  4010b9:	f2 e9 61 ff ff ff    	bnd jmp 401020 <.plt>
  4010bf:	90                   	nop
  4010c0:	f3 0f 1e fa          	endbr64 
  4010c4:	68 09 00 00 00       	push   $0x9
  4010c9:	f2 e9 51 ff ff ff    	bnd jmp 401020 <.plt>
  4010cf:	90                   	nop
  4010d0:	f3 0f 1e fa          	endbr64 
  4010d4:	68 0a 00 00 00       	push   $0xa
  4010d9:	f2 e9 41 ff ff ff    	bnd jmp 401020 <.plt>
  4010df:	90                   	nop
  4010e0:	f3 0f 1e fa          	endbr64 
  4010e4:	68 0b 00 00 00       	push   $0xb
  4010e9:	f2 e9 31 ff ff ff    	bnd jmp 401020 <.plt>
  4010ef:	90                   	nop
  4010f0:	f3 0f 1e fa          	endbr64 
  4010f4:	68 0c 00 00 00       	push   $0xc
  4010f9:	f2 e9 21 ff ff ff    	bnd jmp 401020 <.plt>
  4010ff:	90                   	nop
  401100:	f3 0f 1e fa          	endbr64 
  401104:	68 0d 00 00 00       	push   $0xd
  401109:	f2 e9 11 ff ff ff    	bnd jmp 401020 <.plt>
  40110f:	90                   	nop
  401110:	f3 0f 1e fa          	endbr64 
  401114:	68 0e 00 00 00       	push   $0xe
  401119:	f2 e9 01 ff ff ff    	bnd jmp 401020 <.plt>
  40111f:	90                   	nop
  401120:	f3 0f 1e fa          	endbr64 
  401124:	68 0f 00 00 00       	push   $0xf
  401129:	f2 e9 f1 fe ff ff    	bnd jmp 401020 <.plt>
  40112f:	90                   	nop
  401130:	f3 0f 1e fa          	endbr64 
  401134:	68 10 00 00 00       	push   $0x10
  401139:	f2 e9 e1 fe ff ff    	bnd jmp 401020 <.plt>
  40113f:	90                   	nop
  401140:	f3 0f 1e fa          	endbr64 
  401144:	68 11 00 00 00       	push   $0x11
  401149:	f2 e9 d1 fe ff ff    	bnd jmp 401020 <.plt>
  40114f:	90                   	nop
  401150:	f3 0f 1e fa          	endbr64 
  401154:	68 12 00 00 00       	push   $0x12
  401159:	f2 e9 c1 fe ff ff    	bnd jmp 401020 <.plt>
  40115f:	90                   	nop
  401160:	f3 0f 1e fa          	endbr64 
  401164:	68 13 00 00 00       	push   $0x13
  401169:	f2 e9 b1 fe ff ff    	bnd jmp 401020 <.plt>
  40116f:	90                   	nop
  401170:	f3 0f 1e fa          	endbr64 
  401174:	68 14 00 00 00       	push   $0x14
  401179:	f2 e9 a1 fe ff ff    	bnd jmp 401020 <.plt>
  40117f:	90                   	nop
  401180:	f3 0f 1e fa          	endbr64 
  401184:	68 15 00 00 00       	push   $0x15
  401189:	f2 e9 91 fe ff ff    	bnd jmp 401020 <.plt>
  40118f:	90                   	nop
  401190:	f3 0f 1e fa          	endbr64 
  401194:	68 16 00 00 00       	push   $0x16
  401199:	f2 e9 81 fe ff ff    	bnd jmp 401020 <.plt>
  40119f:	90                   	nop
  4011a0:	f3 0f 1e fa          	endbr64 
  4011a4:	68 17 00 00 00       	push   $0x17
  4011a9:	f2 e9 71 fe ff ff    	bnd jmp 401020 <.plt>
  4011af:	90                   	nop
  4011b0:	f3 0f 1e fa          	endbr64 
  4011b4:	68 18 00 00 00       	push   $0x18
  4011b9:	f2 e9 61 fe ff ff    	bnd jmp 401020 <.plt>
  4011bf:	90                   	nop
  4011c0:	f3 0f 1e fa          	endbr64 
  4011c4:	68 19 00 00 00       	push   $0x19
  4011c9:	f2 e9 51 fe ff ff    	bnd jmp 401020 <.plt>
  4011cf:	90                   	nop
  4011d0:	f3 0f 1e fa          	endbr64 
  4011d4:	68 1a 00 00 00       	push   $0x1a
  4011d9:	f2 e9 41 fe ff ff    	bnd jmp 401020 <.plt>
  4011df:	90                   	nop
  4011e0:	f3 0f 1e fa          	endbr64 
  4011e4:	68 1b 00 00 00       	push   $0x1b
  4011e9:	f2 e9 31 fe ff ff    	bnd jmp 401020 <.plt>
  4011ef:	90                   	nop
  4011f0:	f3 0f 1e fa          	endbr64 
  4011f4:	68 1c 00 00 00       	push   $0x1c
  4011f9:	f2 e9 21 fe ff ff    	bnd jmp 401020 <.plt>
  4011ff:	90                   	nop
  401200:	f3 0f 1e fa          	endbr64 
  401204:	68 1d 00 00 00       	push   $0x1d
  401209:	f2 e9 11 fe ff ff    	bnd jmp 401020 <.plt>
  40120f:	90                   	nop
  401210:	f3 0f 1e fa          	endbr64 
  401214:	68 1e 00 00 00       	push   $0x1e
  401219:	f2 e9 01 fe ff ff    	bnd jmp 401020 <.plt>
  40121f:	90                   	nop
  401220:	f3 0f 1e fa          	endbr64 
  401224:	68 1f 00 00 00       	push   $0x1f
  401229:	f2 e9 f1 fd ff ff    	bnd jmp 401020 <.plt>
  40122f:	90                   	nop
  401230:	f3 0f 1e fa          	endbr64 
  401234:	68 20 00 00 00       	push   $0x20
  401239:	f2 e9 e1 fd ff ff    	bnd jmp 401020 <.plt>
  40123f:	90                   	nop
  401240:	f3 0f 1e fa          	endbr64 
  401244:	68 21 00 00 00       	push   $0x21
  401249:	f2 e9 d1 fd ff ff    	bnd jmp 401020 <.plt>
  40124f:	90                   	nop

Disassembly of section .plt.sec:

0000000000401250 <strcasecmp@plt>:
  401250:	f3 0f 1e fa          	endbr64 
  401254:	f2 ff 25 bd 5d 00 00 	bnd jmp *0x5dbd(%rip)        # 407018 <strcasecmp@GLIBC_2.2.5>
  40125b:	0f 1f 44 00 00       	nopl   0x0(%rax,%rax,1)

0000000000401260 <__errno_location@plt>:
  401260:	f3 0f 1e fa          	endbr64 
  401264:	f2 ff 25 b5 5d 00 00 	bnd jmp *0x5db5(%rip)        # 407020 <__errno_location@GLIBC_2.2.5>
  40126b:	0f 1f 44 00 00       	nopl   0x0(%rax,%rax,1)

0000000000401270 <srandom@plt>:
  401270:	f3 0f 1e fa          	endbr64 
  401274:	f2 ff 25 ad 5d 00 00 	bnd jmp *0x5dad(%rip)        # 407028 <srandom@GLIBC_2.2.5>
  40127b:	0f 1f 44 00 00       	nopl   0x0(%rax,%rax,1)

0000000000401280 <strncpy@plt>:
  401280:	f3 0f 1e fa          	endbr64 
  401284:	f2 ff 25 a5 5d 00 00 	bnd jmp *0x5da5(%rip)        # 407030 <strncpy@GLIBC_2.2.5>
  40128b:	0f 1f 44 00 00       	nopl   0x0(%rax,%rax,1)

0000000000401290 <strncmp@plt>:
  401290:	f3 0f 1e fa          	endbr64 
  401294:	f2 ff 25 9d 5d 00 00 	bnd jmp *0x5d9d(%rip)        # 407038 <strncmp@GLIBC_2.2.5>
  40129b:	0f 1f 44 00 00       	nopl   0x0(%rax,%rax,1)

00000000004012a0 <strcpy@plt>:
  4012a0:	f3 0f 1e fa          	endbr64 
  4012a4:	f2 ff 25 95 5d 00 00 	bnd jmp *0x5d95(%rip)        # 407040 <strcpy@GLIBC_2.2.5>
  4012ab:	0f 1f 44 00 00       	nopl   0x0(%rax,%rax,1)

00000000004012b0 <puts@plt>:
  4012b0:	f3 0f 1e fa          	endbr64 
  4012b4:	f2 ff 25 8d 5d 00 00 	bnd jmp *0x5d8d(%rip)        # 407048 <puts@GLIBC_2.2.5>
  4012bb:	0f 1f 44 00 00       	nopl   0x0(%rax,%rax,1)

00000000004012c0 <write@plt>:
  4012c0:	f3 0f 1e fa          	endbr64 
  4012c4:	f2 ff 25 85 5d 00 00 	bnd jmp *0x5d85(%rip)        # 407050 <write@GLIBC_2.2.5>
  4012cb:	0f 1f 44 00 00       	nopl   0x0(%rax,%rax,1)

00000000004012d0 <mmap@plt>:
  4012d0:	f3 0f 1e fa          	endbr64 
  4012d4:	f2 ff 25 7d 5d 00 00 	bnd jmp *0x5d7d(%rip)        # 407058 <mmap@GLIBC_2.2.5>
  4012db:	0f 1f 44 00 00       	nopl   0x0(%rax,%rax,1)

00000000004012e0 <memset@plt>:
  4012e0:	f3 0f 1e fa          	endbr64 
  4012e4:	f2 ff 25 75 5d 00 00 	bnd jmp *0x5d75(%rip)        # 407060 <memset@GLIBC_2.2.5>
  4012eb:	0f 1f 44 00 00       	nopl   0x0(%rax,%rax,1)

00000000004012f0 <alarm@plt>:
  4012f0:	f3 0f 1e fa          	endbr64 
  4012f4:	f2 ff 25 6d 5d 00 00 	bnd jmp *0x5d6d(%rip)        # 407068 <alarm@GLIBC_2.2.5>
  4012fb:	0f 1f 44 00 00       	nopl   0x0(%rax,%rax,1)

0000000000401300 <close@plt>:
  401300:	f3 0f 1e fa          	endbr64 
  401304:	f2 ff 25 65 5d 00 00 	bnd jmp *0x5d65(%rip)        # 407070 <close@GLIBC_2.2.5>
  40130b:	0f 1f 44 00 00       	nopl   0x0(%rax,%rax,1)

0000000000401310 <read@plt>:
  401310:	f3 0f 1e fa          	endbr64 
  401314:	f2 ff 25 5d 5d 00 00 	bnd jmp *0x5d5d(%rip)        # 407078 <read@GLIBC_2.2.5>
  40131b:	0f 1f 44 00 00       	nopl   0x0(%rax,%rax,1)

0000000000401320 <strcmp@plt>:
  401320:	f3 0f 1e fa          	endbr64 
  401324:	f2 ff 25 55 5d 00 00 	bnd jmp *0x5d55(%rip)        # 407080 <strcmp@GLIBC_2.2.5>
  40132b:	0f 1f 44 00 00       	nopl   0x0(%rax,%rax,1)

0000000000401330 <signal@plt>:
  401330:	f3 0f 1e fa          	endbr64 
  401334:	f2 ff 25 4d 5d 00 00 	bnd jmp *0x5d4d(%rip)        # 407088 <signal@GLIBC_2.2.5>
  40133b:	0f 1f 44 00 00       	nopl   0x0(%rax,%rax,1)

0000000000401340 <gethostbyname@plt>:
  401340:	f3 0f 1e fa          	endbr64 
  401344:	f2 ff 25 45 5d 00 00 	bnd jmp *0x5d45(%rip)        # 407090 <gethostbyname@GLIBC_2.2.5>
  40134b:	0f 1f 44 00 00       	nopl   0x0(%rax,%rax,1)

0000000000401350 <__memmove_chk@plt>:
  401350:	f3 0f 1e fa          	endbr64 
  401354:	f2 ff 25 3d 5d 00 00 	bnd jmp *0x5d3d(%rip)        # 407098 <__memmove_chk@GLIBC_2.3.4>
  40135b:	0f 1f 44 00 00       	nopl   0x0(%rax,%rax,1)

0000000000401360 <strtol@plt>:
  401360:	f3 0f 1e fa          	endbr64 
  401364:	f2 ff 25 35 5d 00 00 	bnd jmp *0x5d35(%rip)        # 4070a0 <strtol@GLIBC_2.2.5>
  40136b:	0f 1f 44 00 00       	nopl   0x0(%rax,%rax,1)

0000000000401370 <memcpy@plt>:
  401370:	f3 0f 1e fa          	endbr64 
  401374:	f2 ff 25 2d 5d 00 00 	bnd jmp *0x5d2d(%rip)        # 4070a8 <memcpy@GLIBC_2.14>
  40137b:	0f 1f 44 00 00       	nopl   0x0(%rax,%rax,1)

0000000000401380 <time@plt>:
  401380:	f3 0f 1e fa          	endbr64 
  401384:	f2 ff 25 25 5d 00 00 	bnd jmp *0x5d25(%rip)        # 4070b0 <time@GLIBC_2.2.5>
  40138b:	0f 1f 44 00 00       	nopl   0x0(%rax,%rax,1)

0000000000401390 <random@plt>:
  401390:	f3 0f 1e fa          	endbr64 
  401394:	f2 ff 25 1d 5d 00 00 	bnd jmp *0x5d1d(%rip)        # 4070b8 <random@GLIBC_2.2.5>
  40139b:	0f 1f 44 00 00       	nopl   0x0(%rax,%rax,1)

00000000004013a0 <__isoc99_sscanf@plt>:
  4013a0:	f3 0f 1e fa          	endbr64 
  4013a4:	f2 ff 25 15 5d 00 00 	bnd jmp *0x5d15(%rip)        # 4070c0 <__isoc99_sscanf@GLIBC_2.7>
  4013ab:	0f 1f 44 00 00       	nopl   0x0(%rax,%rax,1)

00000000004013b0 <munmap@plt>:
  4013b0:	f3 0f 1e fa          	endbr64 
  4013b4:	f2 ff 25 0d 5d 00 00 	bnd jmp *0x5d0d(%rip)        # 4070c8 <munmap@GLIBC_2.2.5>
  4013bb:	0f 1f 44 00 00       	nopl   0x0(%rax,%rax,1)

00000000004013c0 <__printf_chk@plt>:
  4013c0:	f3 0f 1e fa          	endbr64 
  4013c4:	f2 ff 25 05 5d 00 00 	bnd jmp *0x5d05(%rip)        # 4070d0 <__printf_chk@GLIBC_2.3.4>
  4013cb:	0f 1f 44 00 00       	nopl   0x0(%rax,%rax,1)

00000000004013d0 <fopen@plt>:
  4013d0:	f3 0f 1e fa          	endbr64 
  4013d4:	f2 ff 25 fd 5c 00 00 	bnd jmp *0x5cfd(%rip)        # 4070d8 <fopen@GLIBC_2.2.5>
  4013db:	0f 1f 44 00 00       	nopl   0x0(%rax,%rax,1)

00000000004013e0 <getopt@plt>:
  4013e0:	f3 0f 1e fa          	endbr64 
  4013e4:	f2 ff 25 f5 5c 00 00 	bnd jmp *0x5cf5(%rip)        # 4070e0 <getopt@GLIBC_2.2.5>
  4013eb:	0f 1f 44 00 00       	nopl   0x0(%rax,%rax,1)

00000000004013f0 <strtoul@plt>:
  4013f0:	f3 0f 1e fa          	endbr64 
  4013f4:	f2 ff 25 ed 5c 00 00 	bnd jmp *0x5ced(%rip)        # 4070e8 <strtoul@GLIBC_2.2.5>
  4013fb:	0f 1f 44 00 00       	nopl   0x0(%rax,%rax,1)

0000000000401400 <gethostname@plt>:
  401400:	f3 0f 1e fa          	endbr64 
  401404:	f2 ff 25 e5 5c 00 00 	bnd jmp *0x5ce5(%rip)        # 4070f0 <gethostname@GLIBC_2.2.5>
  40140b:	0f 1f 44 00 00       	nopl   0x0(%rax,%rax,1)

0000000000401410 <exit@plt>:
  401410:	f3 0f 1e fa          	endbr64 
  401414:	f2 ff 25 dd 5c 00 00 	bnd jmp *0x5cdd(%rip)        # 4070f8 <exit@GLIBC_2.2.5>
  40141b:	0f 1f 44 00 00       	nopl   0x0(%rax,%rax,1)

0000000000401420 <connect@plt>:
  401420:	f3 0f 1e fa          	endbr64 
  401424:	f2 ff 25 d5 5c 00 00 	bnd jmp *0x5cd5(%rip)        # 407100 <connect@GLIBC_2.2.5>
  40142b:	0f 1f 44 00 00       	nopl   0x0(%rax,%rax,1)

0000000000401430 <__fprintf_chk@plt>:
  401430:	f3 0f 1e fa          	endbr64 
  401434:	f2 ff 25 cd 5c 00 00 	bnd jmp *0x5ccd(%rip)        # 407108 <__fprintf_chk@GLIBC_2.3.4>
  40143b:	0f 1f 44 00 00       	nopl   0x0(%rax,%rax,1)

0000000000401440 <getc@plt>:
  401440:	f3 0f 1e fa          	endbr64 
  401444:	f2 ff 25 c5 5c 00 00 	bnd jmp *0x5cc5(%rip)        # 407110 <getc@GLIBC_2.2.5>
  40144b:	0f 1f 44 00 00       	nopl   0x0(%rax,%rax,1)

0000000000401450 <__sprintf_chk@plt>:
  401450:	f3 0f 1e fa          	endbr64 
  401454:	f2 ff 25 bd 5c 00 00 	bnd jmp *0x5cbd(%rip)        # 407118 <__sprintf_chk@GLIBC_2.3.4>
  40145b:	0f 1f 44 00 00       	nopl   0x0(%rax,%rax,1)

0000000000401460 <socket@plt>:
  401460:	f3 0f 1e fa          	endbr64 
  401464:	f2 ff 25 b5 5c 00 00 	bnd jmp *0x5cb5(%rip)        # 407120 <socket@GLIBC_2.2.5>
  40146b:	0f 1f 44 00 00       	nopl   0x0(%rax,%rax,1)

Disassembly of section .text:

0000000000401470 <_start>:
  401470:	f3 0f 1e fa          	endbr64 
  401474:	31 ed                	xor    %ebp,%ebp
  401476:	49 89 d1             	mov    %rdx,%r9
  401479:	5e                   	pop    %rsi
  40147a:	48 89 e2             	mov    %rsp,%rdx
  40147d:	48 83 e4 f0          	and    $0xfffffffffffffff0,%rsp
  401481:	50                   	push   %rax
  401482:	54                   	push   %rsp
  401483:	49 c7 c0 50 38 40 00 	mov    $0x403850,%r8
  40148a:	48 c7 c1 e0 37 40 00 	mov    $0x4037e0,%rcx
  401491:	48 c7 c7 99 17 40 00 	mov    $0x401799,%rdi
  401498:	ff 15 52 5b 00 00    	call   *0x5b52(%rip)        # 406ff0 <__libc_start_main@GLIBC_2.2.5>
  40149e:	f4                   	hlt    
  40149f:	90                   	nop

00000000004014a0 <_dl_relocate_static_pie>:
  4014a0:	f3 0f 1e fa          	endbr64 
  4014a4:	c3                   	ret    
  4014a5:	66 2e 0f 1f 84 00 00 	cs nopw 0x0(%rax,%rax,1)
  4014ac:	00 00 00 
  4014af:	90                   	nop

00000000004014b0 <deregister_tm_clones>:
  4014b0:	b8 b0 74 40 00       	mov    $0x4074b0,%eax
  4014b5:	48 3d b0 74 40 00    	cmp    $0x4074b0,%rax
  4014bb:	74 13                	je     4014d0 <deregister_tm_clones+0x20>
  4014bd:	b8 00 00 00 00       	mov    $0x0,%eax
  4014c2:	48 85 c0             	test   %rax,%rax
  4014c5:	74 09                	je     4014d0 <deregister_tm_clones+0x20>
  4014c7:	bf b0 74 40 00       	mov    $0x4074b0,%edi
  4014cc:	ff e0                	jmp    *%rax
  4014ce:	66 90                	xchg   %ax,%ax
  4014d0:	c3                   	ret    
  4014d1:	66 66 2e 0f 1f 84 00 	data16 cs nopw 0x0(%rax,%rax,1)
  4014d8:	00 00 00 00 
  4014dc:	0f 1f 40 00          	nopl   0x0(%rax)

00000000004014e0 <register_tm_clones>:
  4014e0:	be b0 74 40 00       	mov    $0x4074b0,%esi
  4014e5:	48 81 ee b0 74 40 00 	sub    $0x4074b0,%rsi
  4014ec:	48 89 f0             	mov    %rsi,%rax
  4014ef:	48 c1 ee 3f          	shr    $0x3f,%rsi
  4014f3:	48 c1 f8 03          	sar    $0x3,%rax
  4014f7:	48 01 c6             	add    %rax,%rsi
  4014fa:	48 d1 fe             	sar    %rsi
  4014fd:	74 11                	je     401510 <register_tm_clones+0x30>
  4014ff:	b8 00 00 00 00       	mov    $0x0,%eax
  401504:	48 85 c0             	test   %rax,%rax
  401507:	74 07                	je     401510 <register_tm_clones+0x30>
  401509:	bf b0 74 40 00       	mov    $0x4074b0,%edi
  40150e:	ff e0                	jmp    *%rax
  401510:	c3                   	ret    
  401511:	66 66 2e 0f 1f 84 00 	data16 cs nopw 0x0(%rax,%rax,1)
  401518:	00 00 00 00 
  40151c:	0f 1f 40 00          	nopl   0x0(%rax)

0000000000401520 <__do_global_dtors_aux>:
  401520:	f3 0f 1e fa          	endbr64 
  401524:	80 3d bd 5f 00 00 00 	cmpb   $0x0,0x5fbd(%rip)        # 4074e8 <completed.8060>
  40152b:	75 13                	jne    401540 <__do_global_dtors_aux+0x20>
  40152d:	55                   	push   %rbp
  40152e:	48 89 e5             	mov    %rsp,%rbp
  401531:	e8 7a ff ff ff       	call   4014b0 <deregister_tm_clones>
  401536:	c6 05 ab 5f 00 00 01 	movb   $0x1,0x5fab(%rip)        # 4074e8 <completed.8060>
  40153d:	5d                   	pop    %rbp
  40153e:	c3                   	ret    
  40153f:	90                   	nop
  401540:	c3                   	ret    
  401541:	66 66 2e 0f 1f 84 00 	data16 cs nopw 0x0(%rax,%rax,1)
  401548:	00 00 00 00 
  40154c:	0f 1f 40 00          	nopl   0x0(%rax)

0000000000401550 <frame_dummy>:
  401550:	f3 0f 1e fa          	endbr64 
  401554:	eb 8a                	jmp    4014e0 <register_tm_clones>

0000000000401556 <usage>:
  401556:	50                   	push   %rax
  401557:	58                   	pop    %rax
  401558:	48 83 ec 08          	sub    $0x8,%rsp
  40155c:	48 89 fa             	mov    %rdi,%rdx
  40155f:	83 3d c2 5f 00 00 00 	cmpl   $0x0,0x5fc2(%rip)        # 407528 <is_checker>
  401566:	74 50                	je     4015b8 <usage+0x62>
  401568:	48 8d 35 99 2a 00 00 	lea    0x2a99(%rip),%rsi        # 404008 <_IO_stdin_used+0x8>
  40156f:	bf 01 00 00 00       	mov    $0x1,%edi
  401574:	b8 00 00 00 00       	mov    $0x0,%eax
  401579:	e8 42 fe ff ff       	call   4013c0 <__printf_chk@plt>
  40157e:	48 8d 3d bb 2a 00 00 	lea    0x2abb(%rip),%rdi        # 404040 <_IO_stdin_used+0x40>
  401585:	e8 26 fd ff ff       	call   4012b0 <puts@plt>
  40158a:	48 8d 3d 3f 2c 00 00 	lea    0x2c3f(%rip),%rdi        # 4041d0 <_IO_stdin_used+0x1d0>
  401591:	e8 1a fd ff ff       	call   4012b0 <puts@plt>
  401596:	48 8d 3d cb 2a 00 00 	lea    0x2acb(%rip),%rdi        # 404068 <_IO_stdin_used+0x68>
  40159d:	e8 0e fd ff ff       	call   4012b0 <puts@plt>
  4015a2:	48 8d 3d 41 2c 00 00 	lea    0x2c41(%rip),%rdi        # 4041ea <_IO_stdin_used+0x1ea>
  4015a9:	e8 02 fd ff ff       	call   4012b0 <puts@plt>
  4015ae:	bf 00 00 00 00       	mov    $0x0,%edi
  4015b3:	e8 58 fe ff ff       	call   401410 <exit@plt>
  4015b8:	48 8d 35 47 2c 00 00 	lea    0x2c47(%rip),%rsi        # 404206 <_IO_stdin_used+0x206>
  4015bf:	bf 01 00 00 00       	mov    $0x1,%edi
  4015c4:	b8 00 00 00 00       	mov    $0x0,%eax
  4015c9:	e8 f2 fd ff ff       	call   4013c0 <__printf_chk@plt>
  4015ce:	48 8d 3d bb 2a 00 00 	lea    0x2abb(%rip),%rdi        # 404090 <_IO_stdin_used+0x90>
  4015d5:	e8 d6 fc ff ff       	call   4012b0 <puts@plt>
  4015da:	48 8d 3d d7 2a 00 00 	lea    0x2ad7(%rip),%rdi        # 4040b8 <_IO_stdin_used+0xb8>
  4015e1:	e8 ca fc ff ff       	call   4012b0 <puts@plt>
  4015e6:	48 8d 3d 37 2c 00 00 	lea    0x2c37(%rip),%rdi        # 404224 <_IO_stdin_used+0x224>
  4015ed:	e8 be fc ff ff       	call   4012b0 <puts@plt>
  4015f2:	eb ba                	jmp    4015ae <usage+0x58>

00000000004015f4 <initialize_target>:
  4015f4:	55                   	push   %rbp
  4015f5:	53                   	push   %rbx
  4015f6:	48 81 ec 00 10 00 00 	sub    $0x1000,%rsp
  4015fd:	48 83 0c 24 00       	orq    $0x0,(%rsp)
  401602:	48 81 ec 00 10 00 00 	sub    $0x1000,%rsp
  401609:	48 83 0c 24 00       	orq    $0x0,(%rsp)
  40160e:	48 81 ec 18 01 00 00 	sub    $0x118,%rsp
  401615:	89 f5                	mov    %esi,%ebp
  401617:	64 48 8b 04 25 28 00 	mov    %fs:0x28,%rax
  40161e:	00 00 
  401620:	48 89 84 24 08 21 00 	mov    %rax,0x2108(%rsp)
  401627:	00 
  401628:	31 c0                	xor    %eax,%eax
  40162a:	89 3d e8 5e 00 00    	mov    %edi,0x5ee8(%rip)        # 407518 <check_level>
  401630:	8b 3d 1a 5b 00 00    	mov    0x5b1a(%rip),%edi        # 407150 <target_id>
  401636:	e8 78 21 00 00       	call   4037b3 <gencookie>
  40163b:	89 c7                	mov    %eax,%edi
  40163d:	89 05 e1 5e 00 00    	mov    %eax,0x5ee1(%rip)        # 407524 <cookie>
  401643:	e8 6b 21 00 00       	call   4037b3 <gencookie>
  401648:	89 05 d2 5e 00 00    	mov    %eax,0x5ed2(%rip)        # 407520 <authkey>
  40164e:	8b 05 fc 5a 00 00    	mov    0x5afc(%rip),%eax        # 407150 <target_id>
  401654:	8d 78 01             	lea    0x1(%rax),%edi
  401657:	e8 14 fc ff ff       	call   401270 <srandom@plt>
  40165c:	e8 2f fd ff ff       	call   401390 <random@plt>
  401661:	48 89 c7             	mov    %rax,%rdi
  401664:	e8 9b 03 00 00       	call   401a04 <scramble>
  401669:	89 c3                	mov    %eax,%ebx
  40166b:	85 ed                	test   %ebp,%ebp
  40166d:	75 54                	jne    4016c3 <initialize_target+0xcf>
  40166f:	b8 00 00 00 00       	mov    $0x0,%eax
  401674:	01 d8                	add    %ebx,%eax
  401676:	0f b7 c0             	movzwl %ax,%eax
  401679:	8d 04 c5 00 01 00 00 	lea    0x100(,%rax,8),%eax
  401680:	89 c0                	mov    %eax,%eax
  401682:	48 89 05 1f 5e 00 00 	mov    %rax,0x5e1f(%rip)        # 4074a8 <buf_offset>
  401689:	c6 05 b8 6a 00 00 63 	movb   $0x63,0x6ab8(%rip)        # 408148 <target_prefix>
  401690:	83 3d 09 5e 00 00 00 	cmpl   $0x0,0x5e09(%rip)        # 4074a0 <notify>
  401697:	74 09                	je     4016a2 <initialize_target+0xae>
  401699:	83 3d 88 5e 00 00 00 	cmpl   $0x0,0x5e88(%rip)        # 407528 <is_checker>
  4016a0:	74 3a                	je     4016dc <initialize_target+0xe8>
  4016a2:	48 8b 84 24 08 21 00 	mov    0x2108(%rsp),%rax
  4016a9:	00 
  4016aa:	64 48 33 04 25 28 00 	xor    %fs:0x28,%rax
  4016b1:	00 00 
  4016b3:	0f 85 db 00 00 00    	jne    401794 <initialize_target+0x1a0>
  4016b9:	48 81 c4 18 21 00 00 	add    $0x2118,%rsp
  4016c0:	5b                   	pop    %rbx
  4016c1:	5d                   	pop    %rbp
  4016c2:	c3                   	ret    
  4016c3:	bf 00 00 00 00       	mov    $0x0,%edi
  4016c8:	e8 b3 fc ff ff       	call   401380 <time@plt>
  4016cd:	48 89 c7             	mov    %rax,%rdi
  4016d0:	e8 9b fb ff ff       	call   401270 <srandom@plt>
  4016d5:	e8 b6 fc ff ff       	call   401390 <random@plt>
  4016da:	eb 98                	jmp    401674 <initialize_target+0x80>
  4016dc:	48 89 e7             	mov    %rsp,%rdi
  4016df:	be 00 01 00 00       	mov    $0x100,%esi
  4016e4:	e8 17 fd ff ff       	call   401400 <gethostname@plt>
  4016e9:	89 c5                	mov    %eax,%ebp
  4016eb:	85 c0                	test   %eax,%eax
  4016ed:	75 26                	jne    401715 <initialize_target+0x121>
  4016ef:	89 c3                	mov    %eax,%ebx
  4016f1:	48 63 c3             	movslq %ebx,%rax
  4016f4:	48 8d 15 85 5a 00 00 	lea    0x5a85(%rip),%rdx        # 407180 <host_table>
  4016fb:	48 8b 3c c2          	mov    (%rdx,%rax,8),%rdi
  4016ff:	48 85 ff             	test   %rdi,%rdi
  401702:	74 2c                	je     401730 <initialize_target+0x13c>
  401704:	48 89 e6             	mov    %rsp,%rsi
  401707:	e8 44 fb ff ff       	call   401250 <strcasecmp@plt>
  40170c:	85 c0                	test   %eax,%eax
  40170e:	74 1b                	je     40172b <initialize_target+0x137>
  401710:	83 c3 01             	add    $0x1,%ebx
  401713:	eb dc                	jmp    4016f1 <initialize_target+0xfd>
  401715:	48 8d 3d cc 29 00 00 	lea    0x29cc(%rip),%rdi        # 4040e8 <_IO_stdin_used+0xe8>
  40171c:	e8 8f fb ff ff       	call   4012b0 <puts@plt>
  401721:	bf 08 00 00 00       	mov    $0x8,%edi
  401726:	e8 e5 fc ff ff       	call   401410 <exit@plt>
  40172b:	bd 01 00 00 00       	mov    $0x1,%ebp
  401730:	85 ed                	test   %ebp,%ebp
  401732:	74 3d                	je     401771 <initialize_target+0x17d>
  401734:	48 8d bc 24 00 01 00 	lea    0x100(%rsp),%rdi
  40173b:	00 
  40173c:	e8 b7 1d 00 00       	call   4034f8 <init_driver>
  401741:	85 c0                	test   %eax,%eax
  401743:	0f 89 59 ff ff ff    	jns    4016a2 <initialize_target+0xae>
  401749:	48 8d 94 24 00 01 00 	lea    0x100(%rsp),%rdx
  401750:	00 
  401751:	48 8d 35 08 2a 00 00 	lea    0x2a08(%rip),%rsi        # 404160 <_IO_stdin_used+0x160>
  401758:	bf 01 00 00 00       	mov    $0x1,%edi
  40175d:	b8 00 00 00 00       	mov    $0x0,%eax
  401762:	e8 59 fc ff ff       	call   4013c0 <__printf_chk@plt>
  401767:	bf 08 00 00 00       	mov    $0x8,%edi
  40176c:	e8 9f fc ff ff       	call   401410 <exit@plt>
  401771:	48 89 e2             	mov    %rsp,%rdx
  401774:	48 8d 35 a5 29 00 00 	lea    0x29a5(%rip),%rsi        # 404120 <_IO_stdin_used+0x120>
  40177b:	bf 01 00 00 00       	mov    $0x1,%edi
  401780:	b8 00 00 00 00       	mov    $0x0,%eax
  401785:	e8 36 fc ff ff       	call   4013c0 <__printf_chk@plt>
  40178a:	bf 08 00 00 00       	mov    $0x8,%edi
  40178f:	e8 7c fc ff ff       	call   401410 <exit@plt>
  401794:	e8 81 10 00 00       	call   40281a <__stack_chk_fail>

0000000000401799 <main>:
  401799:	f3 0f 1e fa          	endbr64 
  40179d:	41 56                	push   %r14
  40179f:	41 55                	push   %r13
  4017a1:	41 54                	push   %r12
  4017a3:	55                   	push   %rbp
  4017a4:	53                   	push   %rbx
  4017a5:	48 83 ec 60          	sub    $0x60,%rsp
  4017a9:	89 fd                	mov    %edi,%ebp
  4017ab:	48 89 f3             	mov    %rsi,%rbx
  4017ae:	64 48 8b 04 25 28 00 	mov    %fs:0x28,%rax
  4017b5:	00 00 
  4017b7:	48 89 44 24 58       	mov    %rax,0x58(%rsp)
  4017bc:	31 c0                	xor    %eax,%eax
  4017be:	48 b8 53 70 69 72 69 	movabs $0x6465746972697053,%rax
  4017c5:	74 65 64 
  4017c8:	48 89 04 24          	mov    %rax,(%rsp)
  4017cc:	c7 44 24 08 41 77 61 	movl   $0x79617741,0x8(%rsp)
  4017d3:	79 
  4017d4:	66 c7 44 24 0c 43 4e 	movw   $0x4e43,0xc(%rsp)
  4017db:	c6 44 24 0e 00       	movb   $0x0,0xe(%rsp)
  4017e0:	48 c7 c6 09 27 40 00 	mov    $0x402709,%rsi
  4017e7:	bf 0b 00 00 00       	mov    $0xb,%edi
  4017ec:	e8 3f fb ff ff       	call   401330 <signal@plt>
  4017f1:	48 c7 c6 af 26 40 00 	mov    $0x4026af,%rsi
  4017f8:	bf 07 00 00 00       	mov    $0x7,%edi
  4017fd:	e8 2e fb ff ff       	call   401330 <signal@plt>
  401802:	48 c7 c6 63 27 40 00 	mov    $0x402763,%rsi
  401809:	bf 04 00 00 00       	mov    $0x4,%edi
  40180e:	e8 1d fb ff ff       	call   401330 <signal@plt>
  401813:	83 3d 0e 5d 00 00 00 	cmpl   $0x0,0x5d0e(%rip)        # 407528 <is_checker>
  40181a:	75 26                	jne    401842 <main+0xa9>
  40181c:	4c 8d 25 24 2a 00 00 	lea    0x2a24(%rip),%r12        # 404247 <_IO_stdin_used+0x247>
  401823:	48 8b 05 96 5c 00 00 	mov    0x5c96(%rip),%rax        # 4074c0 <stdin@GLIBC_2.2.5>
  40182a:	48 89 05 df 5c 00 00 	mov    %rax,0x5cdf(%rip)        # 407510 <infile>
  401831:	41 bd 00 00 00 00    	mov    $0x0,%r13d
  401837:	41 be 00 00 00 00    	mov    $0x0,%r14d
  40183d:	e9 8d 00 00 00       	jmp    4018cf <main+0x136>
  401842:	48 c7 c6 bd 27 40 00 	mov    $0x4027bd,%rsi
  401849:	bf 0e 00 00 00       	mov    $0xe,%edi
  40184e:	e8 dd fa ff ff       	call   401330 <signal@plt>
  401853:	bf 02 00 00 00       	mov    $0x2,%edi
  401858:	e8 93 fa ff ff       	call   4012f0 <alarm@plt>
  40185d:	4c 8d 25 d9 29 00 00 	lea    0x29d9(%rip),%r12        # 40423d <_IO_stdin_used+0x23d>
  401864:	eb bd                	jmp    401823 <main+0x8a>
  401866:	48 8b 3b             	mov    (%rbx),%rdi
  401869:	e8 e8 fc ff ff       	call   401556 <usage>
  40186e:	48 8d 35 9f 2a 00 00 	lea    0x2a9f(%rip),%rsi        # 404314 <_IO_stdin_used+0x314>
  401875:	48 8b 3d 4c 5c 00 00 	mov    0x5c4c(%rip),%rdi        # 4074c8 <optarg@GLIBC_2.2.5>
  40187c:	e8 4f fb ff ff       	call   4013d0 <fopen@plt>
  401881:	48 89 05 88 5c 00 00 	mov    %rax,0x5c88(%rip)        # 407510 <infile>
  401888:	48 85 c0             	test   %rax,%rax
  40188b:	75 42                	jne    4018cf <main+0x136>
  40188d:	48 8b 0d 34 5c 00 00 	mov    0x5c34(%rip),%rcx        # 4074c8 <optarg@GLIBC_2.2.5>
  401894:	48 8d 15 b1 29 00 00 	lea    0x29b1(%rip),%rdx        # 40424c <_IO_stdin_used+0x24c>
  40189b:	be 01 00 00 00       	mov    $0x1,%esi
  4018a0:	48 8b 3d 39 5c 00 00 	mov    0x5c39(%rip),%rdi        # 4074e0 <stderr@GLIBC_2.2.5>
  4018a7:	e8 84 fb ff ff       	call   401430 <__fprintf_chk@plt>
  4018ac:	b8 01 00 00 00       	mov    $0x1,%eax
  4018b1:	e9 2c 01 00 00       	jmp    4019e2 <main+0x249>
  4018b6:	ba 10 00 00 00       	mov    $0x10,%edx
  4018bb:	be 00 00 00 00       	mov    $0x0,%esi
  4018c0:	48 8b 3d 01 5c 00 00 	mov    0x5c01(%rip),%rdi        # 4074c8 <optarg@GLIBC_2.2.5>
  4018c7:	e8 24 fb ff ff       	call   4013f0 <strtoul@plt>
  4018cc:	41 89 c6             	mov    %eax,%r14d
  4018cf:	4c 89 e2             	mov    %r12,%rdx
  4018d2:	48 89 de             	mov    %rbx,%rsi
  4018d5:	89 ef                	mov    %ebp,%edi
  4018d7:	e8 04 fb ff ff       	call   4013e0 <getopt@plt>
  4018dc:	3c ff                	cmp    $0xff,%al
  4018de:	74 7b                	je     40195b <main+0x1c2>
  4018e0:	0f be c8             	movsbl %al,%ecx
  4018e3:	83 e8 61             	sub    $0x61,%eax
  4018e6:	3c 14                	cmp    $0x14,%al
  4018e8:	77 51                	ja     40193b <main+0x1a2>
  4018ea:	0f b6 c0             	movzbl %al,%eax
  4018ed:	48 8d 15 98 29 00 00 	lea    0x2998(%rip),%rdx        # 40428c <_IO_stdin_used+0x28c>
  4018f4:	48 63 04 82          	movslq (%rdx,%rax,4),%rax
  4018f8:	48 01 d0             	add    %rdx,%rax
  4018fb:	3e ff e0             	notrack jmp *%rax
  4018fe:	ba 0a 00 00 00       	mov    $0xa,%edx
  401903:	be 00 00 00 00       	mov    $0x0,%esi
  401908:	48 8b 3d b9 5b 00 00 	mov    0x5bb9(%rip),%rdi        # 4074c8 <optarg@GLIBC_2.2.5>
  40190f:	e8 4c fa ff ff       	call   401360 <strtol@plt>
  401914:	41 89 c5             	mov    %eax,%r13d
  401917:	eb b6                	jmp    4018cf <main+0x136>
  401919:	c7 05 7d 5b 00 00 00 	movl   $0x0,0x5b7d(%rip)        # 4074a0 <notify>
  401920:	00 00 00 
  401923:	eb aa                	jmp    4018cf <main+0x136>
  401925:	48 89 e7             	mov    %rsp,%rdi
  401928:	ba 50 00 00 00       	mov    $0x50,%edx
  40192d:	48 8b 35 94 5b 00 00 	mov    0x5b94(%rip),%rsi        # 4074c8 <optarg@GLIBC_2.2.5>
  401934:	e8 47 f9 ff ff       	call   401280 <strncpy@plt>
  401939:	eb 94                	jmp    4018cf <main+0x136>
  40193b:	89 ca                	mov    %ecx,%edx
  40193d:	48 8d 35 25 29 00 00 	lea    0x2925(%rip),%rsi        # 404269 <_IO_stdin_used+0x269>
  401944:	bf 01 00 00 00       	mov    $0x1,%edi
  401949:	b8 00 00 00 00       	mov    $0x0,%eax
  40194e:	e8 6d fa ff ff       	call   4013c0 <__printf_chk@plt>
  401953:	48 8b 3b             	mov    (%rbx),%rdi
  401956:	e8 fb fb ff ff       	call   401556 <usage>
  40195b:	be 00 00 00 00       	mov    $0x0,%esi
  401960:	44 89 ef             	mov    %r13d,%edi
  401963:	e8 8c fc ff ff       	call   4015f4 <initialize_target>
  401968:	83 3d b9 5b 00 00 00 	cmpl   $0x0,0x5bb9(%rip)        # 407528 <is_checker>
  40196f:	74 3f                	je     4019b0 <main+0x217>
  401971:	44 39 35 a8 5b 00 00 	cmp    %r14d,0x5ba8(%rip)        # 407520 <authkey>
  401978:	75 13                	jne    40198d <main+0x1f4>
  40197a:	48 89 e7             	mov    %rsp,%rdi
  40197d:	48 8b 35 dc 57 00 00 	mov    0x57dc(%rip),%rsi        # 407160 <user_id>
  401984:	e8 97 f9 ff ff       	call   401320 <strcmp@plt>
  401989:	85 c0                	test   %eax,%eax
  40198b:	74 23                	je     4019b0 <main+0x217>
  40198d:	44 89 f2             	mov    %r14d,%edx
  401990:	48 8d 35 f1 27 00 00 	lea    0x27f1(%rip),%rsi        # 404188 <_IO_stdin_used+0x188>
  401997:	bf 01 00 00 00       	mov    $0x1,%edi
  40199c:	b8 00 00 00 00       	mov    $0x0,%eax
  4019a1:	e8 1a fa ff ff       	call   4013c0 <__printf_chk@plt>
  4019a6:	b8 00 00 00 00       	mov    $0x0,%eax
  4019ab:	e8 48 09 00 00       	call   4022f8 <check_fail>
  4019b0:	8b 15 6e 5b 00 00    	mov    0x5b6e(%rip),%edx        # 407524 <cookie>
  4019b6:	48 8d 35 bf 28 00 00 	lea    0x28bf(%rip),%rsi        # 40427c <_IO_stdin_used+0x27c>
  4019bd:	bf 01 00 00 00       	mov    $0x1,%edi
  4019c2:	b8 00 00 00 00       	mov    $0x0,%eax
  4019c7:	e8 f4 f9 ff ff       	call   4013c0 <__printf_chk@plt>
  4019cc:	be 00 00 00 00       	mov    $0x0,%esi
  4019d1:	48 8b 3d d0 5a 00 00 	mov    0x5ad0(%rip),%rdi        # 4074a8 <buf_offset>
  4019d8:	e8 99 0f 00 00       	call   402976 <stable_launch>
  4019dd:	b8 00 00 00 00       	mov    $0x0,%eax
  4019e2:	48 8b 4c 24 58       	mov    0x58(%rsp),%rcx
  4019e7:	64 48 33 0c 25 28 00 	xor    %fs:0x28,%rcx
  4019ee:	00 00 
  4019f0:	75 0d                	jne    4019ff <main+0x266>
  4019f2:	48 83 c4 60          	add    $0x60,%rsp
  4019f6:	5b                   	pop    %rbx
  4019f7:	5d                   	pop    %rbp
  4019f8:	41 5c                	pop    %r12
  4019fa:	41 5d                	pop    %r13
  4019fc:	41 5e                	pop    %r14
  4019fe:	c3                   	ret    
  4019ff:	e8 16 0e 00 00       	call   40281a <__stack_chk_fail>

0000000000401a04 <scramble>:
  401a04:	f3 0f 1e fa          	endbr64 
  401a08:	48 83 ec 38          	sub    $0x38,%rsp
  401a0c:	64 48 8b 04 25 28 00 	mov    %fs:0x28,%rax
  401a13:	00 00 
  401a15:	48 89 44 24 28       	mov    %rax,0x28(%rsp)
  401a1a:	31 c0                	xor    %eax,%eax
  401a1c:	83 f8 09             	cmp    $0x9,%eax
  401a1f:	77 12                	ja     401a33 <scramble+0x2f>
  401a21:	69 d0 ec e1 00 00    	imul   $0xe1ec,%eax,%edx
  401a27:	01 fa                	add    %edi,%edx
  401a29:	89 c1                	mov    %eax,%ecx
  401a2b:	89 14 8c             	mov    %edx,(%rsp,%rcx,4)
  401a2e:	83 c0 01             	add    $0x1,%eax
  401a31:	eb e9                	jmp    401a1c <scramble+0x18>
  401a33:	8b 44 24 0c          	mov    0xc(%rsp),%eax
  401a37:	69 c0 d2 4a 00 00    	imul   $0x4ad2,%eax,%eax
  401a3d:	89 44 24 0c          	mov    %eax,0xc(%rsp)
  401a41:	8b 44 24 20          	mov    0x20(%rsp),%eax
  401a45:	69 c0 da ad 00 00    	imul   $0xadda,%eax,%eax
  401a4b:	89 44 24 20          	mov    %eax,0x20(%rsp)
  401a4f:	8b 44 24 20          	mov    0x20(%rsp),%eax
  401a53:	69 c0 8f 96 00 00    	imul   $0x968f,%eax,%eax
  401a59:	89 44 24 20          	mov    %eax,0x20(%rsp)
  401a5d:	8b 44 24 10          	mov    0x10(%rsp),%eax
  401a61:	69 c0 c6 ca 00 00    	imul   $0xcac6,%eax,%eax
  401a67:	89 44 24 10          	mov    %eax,0x10(%rsp)
  401a6b:	8b 44 24 14          	mov    0x14(%rsp),%eax
  401a6f:	69 c0 f7 5a 00 00    	imul   $0x5af7,%eax,%eax
  401a75:	89 44 24 14          	mov    %eax,0x14(%rsp)
  401a79:	8b 44 24 0c          	mov    0xc(%rsp),%eax
  401a7d:	69 c0 48 2e 00 00    	imul   $0x2e48,%eax,%eax
  401a83:	89 44 24 0c          	mov    %eax,0xc(%rsp)
  401a87:	8b 44 24 14          	mov    0x14(%rsp),%eax
  401a8b:	69 c0 96 37 00 00    	imul   $0x3796,%eax,%eax
  401a91:	89 44 24 14          	mov    %eax,0x14(%rsp)
  401a95:	8b 44 24 04          	mov    0x4(%rsp),%eax
  401a99:	69 c0 56 b9 00 00    	imul   $0xb956,%eax,%eax
  401a9f:	89 44 24 04          	mov    %eax,0x4(%rsp)
  401aa3:	8b 44 24 08          	mov    0x8(%rsp),%eax
  401aa7:	69 c0 97 f4 00 00    	imul   $0xf497,%eax,%eax
  401aad:	89 44 24 08          	mov    %eax,0x8(%rsp)
  401ab1:	8b 44 24 20          	mov    0x20(%rsp),%eax
  401ab5:	69 c0 50 43 00 00    	imul   $0x4350,%eax,%eax
  401abb:	89 44 24 20          	mov    %eax,0x20(%rsp)
  401abf:	8b 44 24 14          	mov    0x14(%rsp),%eax
  401ac3:	69 c0 e1 0e 00 00    	imul   $0xee1,%eax,%eax
  401ac9:	89 44 24 14          	mov    %eax,0x14(%rsp)
  401acd:	8b 44 24 10          	mov    0x10(%rsp),%eax
  401ad1:	69 c0 4f 14 00 00    	imul   $0x144f,%eax,%eax
  401ad7:	89 44 24 10          	mov    %eax,0x10(%rsp)
  401adb:	8b 04 24             	mov    (%rsp),%eax
  401ade:	69 c0 89 cd 00 00    	imul   $0xcd89,%eax,%eax
  401ae4:	89 04 24             	mov    %eax,(%rsp)
  401ae7:	8b 44 24 04          	mov    0x4(%rsp),%eax
  401aeb:	69 c0 fe 3a 00 00    	imul   $0x3afe,%eax,%eax
  401af1:	89 44 24 04          	mov    %eax,0x4(%rsp)
  401af5:	8b 04 24             	mov    (%rsp),%eax
  401af8:	69 c0 d7 70 00 00    	imul   $0x70d7,%eax,%eax
  401afe:	89 04 24             	mov    %eax,(%rsp)
  401b01:	8b 44 24 24          	mov    0x24(%rsp),%eax
  401b05:	69 c0 0b 08 00 00    	imul   $0x80b,%eax,%eax
  401b0b:	89 44 24 24          	mov    %eax,0x24(%rsp)
  401b0f:	8b 44 24 1c          	mov    0x1c(%rsp),%eax
  401b13:	69 c0 7f 3a 00 00    	imul   $0x3a7f,%eax,%eax
  401b19:	89 44 24 1c          	mov    %eax,0x1c(%rsp)
  401b1d:	8b 44 24 04          	mov    0x4(%rsp),%eax
  401b21:	69 c0 6a d6 00 00    	imul   $0xd66a,%eax,%eax
  401b27:	89 44 24 04          	mov    %eax,0x4(%rsp)
  401b2b:	8b 44 24 18          	mov    0x18(%rsp),%eax
  401b2f:	69 c0 40 8d 00 00    	imul   $0x8d40,%eax,%eax
  401b35:	89 44 24 18          	mov    %eax,0x18(%rsp)
  401b39:	8b 44 24 0c          	mov    0xc(%rsp),%eax
  401b3d:	69 c0 f3 c8 00 00    	imul   $0xc8f3,%eax,%eax
  401b43:	89 44 24 0c          	mov    %eax,0xc(%rsp)
  401b47:	8b 44 24 24          	mov    0x24(%rsp),%eax
  401b4b:	69 c0 85 57 00 00    	imul   $0x5785,%eax,%eax
  401b51:	89 44 24 24          	mov    %eax,0x24(%rsp)
  401b55:	8b 44 24 18          	mov    0x18(%rsp),%eax
  401b59:	69 c0 b5 32 00 00    	imul   $0x32b5,%eax,%eax
  401b5f:	89 44 24 18          	mov    %eax,0x18(%rsp)
  401b63:	8b 44 24 04          	mov    0x4(%rsp),%eax
  401b67:	69 c0 00 5a 00 00    	imul   $0x5a00,%eax,%eax
  401b6d:	89 44 24 04          	mov    %eax,0x4(%rsp)
  401b71:	8b 44 24 14          	mov    0x14(%rsp),%eax
  401b75:	69 c0 f5 39 00 00    	imul   $0x39f5,%eax,%eax
  401b7b:	89 44 24 14          	mov    %eax,0x14(%rsp)
  401b7f:	8b 44 24 14          	mov    0x14(%rsp),%eax
  401b83:	69 c0 ce a4 00 00    	imul   $0xa4ce,%eax,%eax
  401b89:	89 44 24 14          	mov    %eax,0x14(%rsp)
  401b8d:	8b 44 24 0c          	mov    0xc(%rsp),%eax
  401b91:	69 c0 9e 6b 00 00    	imul   $0x6b9e,%eax,%eax
  401b97:	89 44 24 0c          	mov    %eax,0xc(%rsp)
  401b9b:	8b 44 24 14          	mov    0x14(%rsp),%eax
  401b9f:	69 c0 b3 d9 00 00    	imul   $0xd9b3,%eax,%eax
  401ba5:	89 44 24 14          	mov    %eax,0x14(%rsp)
  401ba9:	8b 44 24 10          	mov    0x10(%rsp),%eax
  401bad:	69 c0 05 74 00 00    	imul   $0x7405,%eax,%eax
  401bb3:	89 44 24 10          	mov    %eax,0x10(%rsp)
  401bb7:	8b 44 24 1c          	mov    0x1c(%rsp),%eax
  401bbb:	69 c0 c5 c9 00 00    	imul   $0xc9c5,%eax,%eax
  401bc1:	89 44 24 1c          	mov    %eax,0x1c(%rsp)
  401bc5:	8b 44 24 1c          	mov    0x1c(%rsp),%eax
  401bc9:	69 c0 5b cd 00 00    	imul   $0xcd5b,%eax,%eax
  401bcf:	89 44 24 1c          	mov    %eax,0x1c(%rsp)
  401bd3:	8b 44 24 18          	mov    0x18(%rsp),%eax
  401bd7:	69 c0 e1 7a 00 00    	imul   $0x7ae1,%eax,%eax
  401bdd:	89 44 24 18          	mov    %eax,0x18(%rsp)
  401be1:	8b 44 24 04          	mov    0x4(%rsp),%eax
  401be5:	69 c0 46 f6 00 00    	imul   $0xf646,%eax,%eax
  401beb:	89 44 24 04          	mov    %eax,0x4(%rsp)
  401bef:	8b 44 24 20          	mov    0x20(%rsp),%eax
  401bf3:	69 c0 4c 8b 00 00    	imul   $0x8b4c,%eax,%eax
  401bf9:	89 44 24 20          	mov    %eax,0x20(%rsp)
  401bfd:	8b 44 24 10          	mov    0x10(%rsp),%eax
  401c01:	69 c0 70 86 00 00    	imul   $0x8670,%eax,%eax
  401c07:	89 44 24 10          	mov    %eax,0x10(%rsp)
  401c0b:	8b 44 24 04          	mov    0x4(%rsp),%eax
  401c0f:	69 c0 e1 6d 00 00    	imul   $0x6de1,%eax,%eax
  401c15:	89 44 24 04          	mov    %eax,0x4(%rsp)
  401c19:	8b 04 24             	mov    (%rsp),%eax
  401c1c:	69 c0 c3 00 00 00    	imul   $0xc3,%eax,%eax
  401c22:	89 04 24             	mov    %eax,(%rsp)
  401c25:	8b 44 24 20          	mov    0x20(%rsp),%eax
  401c29:	69 c0 9e 46 00 00    	imul   $0x469e,%eax,%eax
  401c2f:	89 44 24 20          	mov    %eax,0x20(%rsp)
  401c33:	8b 44 24 10          	mov    0x10(%rsp),%eax
  401c37:	69 c0 82 54 00 00    	imul   $0x5482,%eax,%eax
  401c3d:	89 44 24 10          	mov    %eax,0x10(%rsp)
  401c41:	8b 44 24 18          	mov    0x18(%rsp),%eax
  401c45:	69 c0 84 1f 00 00    	imul   $0x1f84,%eax,%eax
  401c4b:	89 44 24 18          	mov    %eax,0x18(%rsp)
  401c4f:	8b 44 24 18          	mov    0x18(%rsp),%eax
  401c53:	69 c0 36 ef 00 00    	imul   $0xef36,%eax,%eax
  401c59:	89 44 24 18          	mov    %eax,0x18(%rsp)
  401c5d:	8b 44 24 20          	mov    0x20(%rsp),%eax
  401c61:	69 c0 bd 0b 00 00    	imul   $0xbbd,%eax,%eax
  401c67:	89 44 24 20          	mov    %eax,0x20(%rsp)
  401c6b:	8b 44 24 10          	mov    0x10(%rsp),%eax
  401c6f:	69 c0 01 78 00 00    	imul   $0x7801,%eax,%eax
  401c75:	89 44 24 10          	mov    %eax,0x10(%rsp)
  401c79:	8b 44 24 20          	mov    0x20(%rsp),%eax
  401c7d:	69 c0 c1 da 00 00    	imul   $0xdac1,%eax,%eax
  401c83:	89 44 24 20          	mov    %eax,0x20(%rsp)
  401c87:	8b 44 24 0c          	mov    0xc(%rsp),%eax
  401c8b:	69 c0 ac 8c 00 00    	imul   $0x8cac,%eax,%eax
  401c91:	89 44 24 0c          	mov    %eax,0xc(%rsp)
  401c95:	8b 44 24 0c          	mov    0xc(%rsp),%eax
  401c99:	69 c0 0a 9b 00 00    	imul   $0x9b0a,%eax,%eax
  401c9f:	89 44 24 0c          	mov    %eax,0xc(%rsp)
  401ca3:	8b 44 24 14          	mov    0x14(%rsp),%eax
  401ca7:	69 c0 24 df 00 00    	imul   $0xdf24,%eax,%eax
  401cad:	89 44 24 14          	mov    %eax,0x14(%rsp)
  401cb1:	8b 44 24 20          	mov    0x20(%rsp),%eax
  401cb5:	69 c0 6e 2f 00 00    	imul   $0x2f6e,%eax,%eax
  401cbb:	89 44 24 20          	mov    %eax,0x20(%rsp)
  401cbf:	8b 44 24 20          	mov    0x20(%rsp),%eax
  401cc3:	69 c0 4c cb 00 00    	imul   $0xcb4c,%eax,%eax
  401cc9:	89 44 24 20          	mov    %eax,0x20(%rsp)
  401ccd:	8b 44 24 08          	mov    0x8(%rsp),%eax
  401cd1:	69 c0 1b a2 00 00    	imul   $0xa21b,%eax,%eax
  401cd7:	89 44 24 08          	mov    %eax,0x8(%rsp)
  401cdb:	8b 44 24 20          	mov    0x20(%rsp),%eax
  401cdf:	69 c0 46 d3 00 00    	imul   $0xd346,%eax,%eax
  401ce5:	89 44 24 20          	mov    %eax,0x20(%rsp)
  401ce9:	8b 44 24 04          	mov    0x4(%rsp),%eax
  401ced:	69 c0 1f a1 00 00    	imul   $0xa11f,%eax,%eax
  401cf3:	89 44 24 04          	mov    %eax,0x4(%rsp)
  401cf7:	8b 44 24 0c          	mov    0xc(%rsp),%eax
  401cfb:	69 c0 62 d5 00 00    	imul   $0xd562,%eax,%eax
  401d01:	89 44 24 0c          	mov    %eax,0xc(%rsp)
  401d05:	8b 44 24 24          	mov    0x24(%rsp),%eax
  401d09:	69 c0 82 07 00 00    	imul   $0x782,%eax,%eax
  401d0f:	89 44 24 24          	mov    %eax,0x24(%rsp)
  401d13:	8b 44 24 08          	mov    0x8(%rsp),%eax
  401d17:	69 c0 5c 88 00 00    	imul   $0x885c,%eax,%eax
  401d1d:	89 44 24 08          	mov    %eax,0x8(%rsp)
  401d21:	8b 44 24 08          	mov    0x8(%rsp),%eax
  401d25:	69 c0 5d b8 00 00    	imul   $0xb85d,%eax,%eax
  401d2b:	89 44 24 08          	mov    %eax,0x8(%rsp)
  401d2f:	8b 44 24 20          	mov    0x20(%rsp),%eax
  401d33:	69 c0 58 eb 00 00    	imul   $0xeb58,%eax,%eax
  401d39:	89 44 24 20          	mov    %eax,0x20(%rsp)
  401d3d:	8b 44 24 04          	mov    0x4(%rsp),%eax
  401d41:	69 c0 66 d2 00 00    	imul   $0xd266,%eax,%eax
  401d47:	89 44 24 04          	mov    %eax,0x4(%rsp)
  401d4b:	8b 44 24 14          	mov    0x14(%rsp),%eax
  401d4f:	69 c0 8b a9 00 00    	imul   $0xa98b,%eax,%eax
  401d55:	89 44 24 14          	mov    %eax,0x14(%rsp)
  401d59:	8b 44 24 04          	mov    0x4(%rsp),%eax
  401d5d:	69 c0 5f 4f 00 00    	imul   $0x4f5f,%eax,%eax
  401d63:	89 44 24 04          	mov    %eax,0x4(%rsp)
  401d67:	8b 44 24 1c          	mov    0x1c(%rsp),%eax
  401d6b:	69 c0 ae 51 00 00    	imul   $0x51ae,%eax,%eax
  401d71:	89 44 24 1c          	mov    %eax,0x1c(%rsp)
  401d75:	8b 04 24             	mov    (%rsp),%eax
  401d78:	69 c0 3f 90 00 00    	imul   $0x903f,%eax,%eax
  401d7e:	89 04 24             	mov    %eax,(%rsp)
  401d81:	8b 44 24 04          	mov    0x4(%rsp),%eax
  401d85:	6b c0 55             	imul   $0x55,%eax,%eax
  401d88:	89 44 24 04          	mov    %eax,0x4(%rsp)
  401d8c:	8b 44 24 04          	mov    0x4(%rsp),%eax
  401d90:	69 c0 3d 06 00 00    	imul   $0x63d,%eax,%eax
  401d96:	89 44 24 04          	mov    %eax,0x4(%rsp)
  401d9a:	8b 44 24 08          	mov    0x8(%rsp),%eax
  401d9e:	69 c0 67 7a 00 00    	imul   $0x7a67,%eax,%eax
  401da4:	89 44 24 08          	mov    %eax,0x8(%rsp)
  401da8:	8b 44 24 0c          	mov    0xc(%rsp),%eax
  401dac:	69 c0 5e 1d 00 00    	imul   $0x1d5e,%eax,%eax
  401db2:	89 44 24 0c          	mov    %eax,0xc(%rsp)
  401db6:	8b 44 24 24          	mov    0x24(%rsp),%eax
  401dba:	69 c0 54 b8 00 00    	imul   $0xb854,%eax,%eax
  401dc0:	89 44 24 24          	mov    %eax,0x24(%rsp)
  401dc4:	8b 44 24 08          	mov    0x8(%rsp),%eax
  401dc8:	69 c0 b6 21 00 00    	imul   $0x21b6,%eax,%eax
  401dce:	89 44 24 08          	mov    %eax,0x8(%rsp)
  401dd2:	8b 44 24 20          	mov    0x20(%rsp),%eax
  401dd6:	69 c0 3b a6 00 00    	imul   $0xa63b,%eax,%eax
  401ddc:	89 44 24 20          	mov    %eax,0x20(%rsp)
  401de0:	8b 44 24 14          	mov    0x14(%rsp),%eax
  401de4:	69 c0 9b b7 00 00    	imul   $0xb79b,%eax,%eax
  401dea:	89 44 24 14          	mov    %eax,0x14(%rsp)
  401dee:	8b 44 24 20          	mov    0x20(%rsp),%eax
  401df2:	69 c0 3e 50 00 00    	imul   $0x503e,%eax,%eax
  401df8:	89 44 24 20          	mov    %eax,0x20(%rsp)
  401dfc:	8b 44 24 08          	mov    0x8(%rsp),%eax
  401e00:	69 c0 29 a6 00 00    	imul   $0xa629,%eax,%eax
  401e06:	89 44 24 08          	mov    %eax,0x8(%rsp)
  401e0a:	8b 44 24 24          	mov    0x24(%rsp),%eax
  401e0e:	69 c0 13 34 00 00    	imul   $0x3413,%eax,%eax
  401e14:	89 44 24 24          	mov    %eax,0x24(%rsp)
  401e18:	8b 44 24 08          	mov    0x8(%rsp),%eax
  401e1c:	69 c0 ef 9e 00 00    	imul   $0x9eef,%eax,%eax
  401e22:	89 44 24 08          	mov    %eax,0x8(%rsp)
  401e26:	8b 44 24 14          	mov    0x14(%rsp),%eax
  401e2a:	69 c0 b6 25 00 00    	imul   $0x25b6,%eax,%eax
  401e30:	89 44 24 14          	mov    %eax,0x14(%rsp)
  401e34:	8b 44 24 14          	mov    0x14(%rsp),%eax
  401e38:	69 c0 d5 13 00 00    	imul   $0x13d5,%eax,%eax
  401e3e:	89 44 24 14          	mov    %eax,0x14(%rsp)
  401e42:	8b 44 24 08          	mov    0x8(%rsp),%eax
  401e46:	69 c0 b8 d8 00 00    	imul   $0xd8b8,%eax,%eax
  401e4c:	89 44 24 08          	mov    %eax,0x8(%rsp)
  401e50:	8b 44 24 1c          	mov    0x1c(%rsp),%eax
  401e54:	69 c0 37 a8 00 00    	imul   $0xa837,%eax,%eax
  401e5a:	89 44 24 1c          	mov    %eax,0x1c(%rsp)
  401e5e:	8b 44 24 20          	mov    0x20(%rsp),%eax
  401e62:	69 c0 c1 63 00 00    	imul   $0x63c1,%eax,%eax
  401e68:	89 44 24 20          	mov    %eax,0x20(%rsp)
  401e6c:	8b 44 24 10          	mov    0x10(%rsp),%eax
  401e70:	69 c0 af a4 00 00    	imul   $0xa4af,%eax,%eax
  401e76:	89 44 24 10          	mov    %eax,0x10(%rsp)
  401e7a:	8b 44 24 1c          	mov    0x1c(%rsp),%eax
  401e7e:	69 c0 cc 56 00 00    	imul   $0x56cc,%eax,%eax
  401e84:	89 44 24 1c          	mov    %eax,0x1c(%rsp)
  401e88:	8b 44 24 08          	mov    0x8(%rsp),%eax
  401e8c:	69 c0 d5 2b 00 00    	imul   $0x2bd5,%eax,%eax
  401e92:	89 44 24 08          	mov    %eax,0x8(%rsp)
  401e96:	8b 44 24 10          	mov    0x10(%rsp),%eax
  401e9a:	69 c0 8a 80 00 00    	imul   $0x808a,%eax,%eax
  401ea0:	89 44 24 10          	mov    %eax,0x10(%rsp)
  401ea4:	8b 44 24 0c          	mov    0xc(%rsp),%eax
  401ea8:	69 c0 d7 9c 00 00    	imul   $0x9cd7,%eax,%eax
  401eae:	89 44 24 0c          	mov    %eax,0xc(%rsp)
  401eb2:	8b 44 24 20          	mov    0x20(%rsp),%eax
  401eb6:	69 c0 c4 76 00 00    	imul   $0x76c4,%eax,%eax
  401ebc:	89 44 24 20          	mov    %eax,0x20(%rsp)
  401ec0:	8b 44 24 1c          	mov    0x1c(%rsp),%eax
  401ec4:	69 c0 5c 55 00 00    	imul   $0x555c,%eax,%eax
  401eca:	89 44 24 1c          	mov    %eax,0x1c(%rsp)
  401ece:	8b 44 24 1c          	mov    0x1c(%rsp),%eax
  401ed2:	69 c0 6b c4 00 00    	imul   $0xc46b,%eax,%eax
  401ed8:	89 44 24 1c          	mov    %eax,0x1c(%rsp)
  401edc:	8b 44 24 18          	mov    0x18(%rsp),%eax
  401ee0:	69 c0 99 02 00 00    	imul   $0x299,%eax,%eax
  401ee6:	89 44 24 18          	mov    %eax,0x18(%rsp)
  401eea:	8b 44 24 14          	mov    0x14(%rsp),%eax
  401eee:	69 c0 14 74 00 00    	imul   $0x7414,%eax,%eax
  401ef4:	89 44 24 14          	mov    %eax,0x14(%rsp)
  401ef8:	8b 44 24 0c          	mov    0xc(%rsp),%eax
  401efc:	69 c0 1c d6 00 00    	imul   $0xd61c,%eax,%eax
  401f02:	89 44 24 0c          	mov    %eax,0xc(%rsp)
  401f06:	8b 44 24 0c          	mov    0xc(%rsp),%eax
  401f0a:	69 c0 d8 8f 00 00    	imul   $0x8fd8,%eax,%eax
  401f10:	89 44 24 0c          	mov    %eax,0xc(%rsp)
  401f14:	8b 44 24 10          	mov    0x10(%rsp),%eax
  401f18:	69 c0 30 11 00 00    	imul   $0x1130,%eax,%eax
  401f1e:	89 44 24 10          	mov    %eax,0x10(%rsp)
  401f22:	b8 00 00 00 00       	mov    $0x0,%eax
  401f27:	ba 00 00 00 00       	mov    $0x0,%edx
  401f2c:	83 f8 09             	cmp    $0x9,%eax
  401f2f:	77 0c                	ja     401f3d <scramble+0x539>
  401f31:	89 c1                	mov    %eax,%ecx
  401f33:	8b 0c 8c             	mov    (%rsp,%rcx,4),%ecx
  401f36:	01 ca                	add    %ecx,%edx
  401f38:	83 c0 01             	add    $0x1,%eax
  401f3b:	eb ef                	jmp    401f2c <scramble+0x528>
  401f3d:	48 8b 44 24 28       	mov    0x28(%rsp),%rax
  401f42:	64 48 33 04 25 28 00 	xor    %fs:0x28,%rax
  401f49:	00 00 
  401f4b:	75 07                	jne    401f54 <scramble+0x550>
  401f4d:	89 d0                	mov    %edx,%eax
  401f4f:	48 83 c4 38          	add    $0x38,%rsp
  401f53:	c3                   	ret    
  401f54:	e8 c1 08 00 00       	call   40281a <__stack_chk_fail>

0000000000401f59 <getbuf>:
  401f59:	f3 0f 1e fa          	endbr64 
  401f5d:	48 83 ec 38          	sub    $0x38,%rsp
  401f61:	48 89 e7             	mov    %rsp,%rdi
  401f64:	e8 cd 03 00 00       	call   402336 <Gets>
  401f69:	b8 01 00 00 00       	mov    $0x1,%eax
  401f6e:	48 83 c4 38          	add    $0x38,%rsp
  401f72:	c3                   	ret    

0000000000401f73 <getbuf_withcanary>:
  401f73:	f3 0f 1e fa          	endbr64 
  401f77:	55                   	push   %rbp
  401f78:	48 89 e5             	mov    %rsp,%rbp
  401f7b:	48 81 ec 90 01 00 00 	sub    $0x190,%rsp
  401f82:	64 48 8b 04 25 28 00 	mov    %fs:0x28,%rax
  401f89:	00 00 
  401f8b:	48 89 45 f8          	mov    %rax,-0x8(%rbp)
  401f8f:	31 c0                	xor    %eax,%eax
  401f91:	c7 85 74 ff ff ff 00 	movl   $0x0,-0x8c(%rbp)
  401f98:	00 00 00 
  401f9b:	8b 85 74 ff ff ff    	mov    -0x8c(%rbp),%eax
  401fa1:	89 85 70 ff ff ff    	mov    %eax,-0x90(%rbp)
  401fa7:	48 8d 85 70 fe ff ff 	lea    -0x190(%rbp),%rax
  401fae:	48 89 c7             	mov    %rax,%rdi
  401fb1:	e8 80 03 00 00       	call   402336 <Gets>
  401fb6:	8b 85 70 ff ff ff    	mov    -0x90(%rbp),%eax
  401fbc:	48 63 d0             	movslq %eax,%rdx
  401fbf:	48 8d 85 70 fe ff ff 	lea    -0x190(%rbp),%rax
  401fc6:	48 8d 88 08 01 00 00 	lea    0x108(%rax),%rcx
  401fcd:	48 8d 85 70 fe ff ff 	lea    -0x190(%rbp),%rax
  401fd4:	48 89 ce             	mov    %rcx,%rsi
  401fd7:	48 89 c7             	mov    %rax,%rdi
  401fda:	e8 91 f3 ff ff       	call   401370 <memcpy@plt>
  401fdf:	8b 85 74 ff ff ff    	mov    -0x8c(%rbp),%eax
  401fe5:	48 63 d0             	movslq %eax,%rdx
  401fe8:	48 8d 85 70 fe ff ff 	lea    -0x190(%rbp),%rax
  401fef:	48 8d 8d 70 fe ff ff 	lea    -0x190(%rbp),%rcx
  401ff6:	48 81 c1 08 01 00 00 	add    $0x108,%rcx
  401ffd:	48 89 c6             	mov    %rax,%rsi
  402000:	48 89 cf             	mov    %rcx,%rdi
  402003:	e8 68 f3 ff ff       	call   401370 <memcpy@plt>
  402008:	b8 01 00 00 00       	mov    $0x1,%eax
  40200d:	48 8b 55 f8          	mov    -0x8(%rbp),%rdx
  402011:	64 48 2b 14 25 28 00 	sub    %fs:0x28,%rdx
  402018:	00 00 
  40201a:	74 05                	je     402021 <getbuf_withcanary+0xae>
  40201c:	e8 f9 07 00 00       	call   40281a <__stack_chk_fail>
  402021:	c9                   	leave  
  402022:	c3                   	ret    

0000000000402023 <touch1>:
  402023:	f3 0f 1e fa          	endbr64 
  402027:	50                   	push   %rax
  402028:	58                   	pop    %rax
  402029:	48 83 ec 08          	sub    $0x8,%rsp
  40202d:	c7 05 e5 54 00 00 01 	movl   $0x1,0x54e5(%rip)        # 40751c <vlevel>
  402034:	00 00 00 
  402037:	48 8d 3d d8 22 00 00 	lea    0x22d8(%rip),%rdi        # 404316 <_IO_stdin_used+0x316>
  40203e:	e8 6d f2 ff ff       	call   4012b0 <puts@plt>
  402043:	bf 01 00 00 00       	mov    $0x1,%edi
  402048:	e8 5b 05 00 00       	call   4025a8 <validate>
  40204d:	bf 00 00 00 00       	mov    $0x0,%edi
  402052:	e8 b9 f3 ff ff       	call   401410 <exit@plt>

0000000000402057 <touch2>:
  402057:	f3 0f 1e fa          	endbr64 
  40205b:	50                   	push   %rax
  40205c:	58                   	pop    %rax
  40205d:	48 83 ec 08          	sub    $0x8,%rsp
  402061:	89 fa                	mov    %edi,%edx
  402063:	c7 05 af 54 00 00 02 	movl   $0x2,0x54af(%rip)        # 40751c <vlevel>
  40206a:	00 00 00 
  40206d:	39 3d b1 54 00 00    	cmp    %edi,0x54b1(%rip)        # 407524 <cookie>
  402073:	74 2a                	je     40209f <touch2+0x48>
  402075:	48 8d 35 e4 22 00 00 	lea    0x22e4(%rip),%rsi        # 404360 <_IO_stdin_used+0x360>
  40207c:	bf 01 00 00 00       	mov    $0x1,%edi
  402081:	b8 00 00 00 00       	mov    $0x0,%eax
  402086:	e8 35 f3 ff ff       	call   4013c0 <__printf_chk@plt>
  40208b:	bf 02 00 00 00       	mov    $0x2,%edi
  402090:	e8 ee 05 00 00       	call   402683 <fail>
  402095:	bf 00 00 00 00       	mov    $0x0,%edi
  40209a:	e8 71 f3 ff ff       	call   401410 <exit@plt>
  40209f:	48 8d 35 92 22 00 00 	lea    0x2292(%rip),%rsi        # 404338 <_IO_stdin_used+0x338>
  4020a6:	bf 01 00 00 00       	mov    $0x1,%edi
  4020ab:	b8 00 00 00 00       	mov    $0x0,%eax
  4020b0:	e8 0b f3 ff ff       	call   4013c0 <__printf_chk@plt>
  4020b5:	bf 02 00 00 00       	mov    $0x2,%edi
  4020ba:	e8 e9 04 00 00       	call   4025a8 <validate>
  4020bf:	eb d4                	jmp    402095 <touch2+0x3e>

00000000004020c1 <hexmatch>:
  4020c1:	f3 0f 1e fa          	endbr64 
  4020c5:	41 55                	push   %r13
  4020c7:	41 54                	push   %r12
  4020c9:	55                   	push   %rbp
  4020ca:	53                   	push   %rbx
  4020cb:	48 81 ec 88 00 00 00 	sub    $0x88,%rsp
  4020d2:	89 fd                	mov    %edi,%ebp
  4020d4:	48 89 f3             	mov    %rsi,%rbx
  4020d7:	41 bc 28 00 00 00    	mov    $0x28,%r12d
  4020dd:	64 49 8b 04 24       	mov    %fs:(%r12),%rax
  4020e2:	48 89 44 24 78       	mov    %rax,0x78(%rsp)
  4020e7:	31 c0                	xor    %eax,%eax
  4020e9:	e8 a2 f2 ff ff       	call   401390 <random@plt>
  4020ee:	48 89 c1             	mov    %rax,%rcx
  4020f1:	48 ba 0b d7 a3 70 3d 	movabs $0xa3d70a3d70a3d70b,%rdx
  4020f8:	0a d7 a3 
  4020fb:	48 f7 ea             	imul   %rdx
  4020fe:	48 01 ca             	add    %rcx,%rdx
  402101:	48 c1 fa 06          	sar    $0x6,%rdx
  402105:	48 89 c8             	mov    %rcx,%rax
  402108:	48 c1 f8 3f          	sar    $0x3f,%rax
  40210c:	48 29 c2             	sub    %rax,%rdx
  40210f:	48 8d 04 92          	lea    (%rdx,%rdx,4),%rax
  402113:	48 8d 04 80          	lea    (%rax,%rax,4),%rax
  402117:	48 c1 e0 02          	shl    $0x2,%rax
  40211b:	48 29 c1             	sub    %rax,%rcx
  40211e:	4c 8d 2c 0c          	lea    (%rsp,%rcx,1),%r13
  402122:	41 89 e8             	mov    %ebp,%r8d
  402125:	48 8d 0d 07 22 00 00 	lea    0x2207(%rip),%rcx        # 404333 <_IO_stdin_used+0x333>
  40212c:	48 c7 c2 ff ff ff ff 	mov    $0xffffffffffffffff,%rdx
  402133:	be 01 00 00 00       	mov    $0x1,%esi
  402138:	4c 89 ef             	mov    %r13,%rdi
  40213b:	b8 00 00 00 00       	mov    $0x0,%eax
  402140:	e8 0b f3 ff ff       	call   401450 <__sprintf_chk@plt>
  402145:	ba 09 00 00 00       	mov    $0x9,%edx
  40214a:	4c 89 ee             	mov    %r13,%rsi
  40214d:	48 89 df             	mov    %rbx,%rdi
  402150:	e8 3b f1 ff ff       	call   401290 <strncmp@plt>
  402155:	85 c0                	test   %eax,%eax
  402157:	0f 94 c0             	sete   %al
  40215a:	48 8b 5c 24 78       	mov    0x78(%rsp),%rbx
  40215f:	64 49 33 1c 24       	xor    %fs:(%r12),%rbx
  402164:	75 11                	jne    402177 <hexmatch+0xb6>
  402166:	0f b6 c0             	movzbl %al,%eax
  402169:	48 81 c4 88 00 00 00 	add    $0x88,%rsp
  402170:	5b                   	pop    %rbx
  402171:	5d                   	pop    %rbp
  402172:	41 5c                	pop    %r12
  402174:	41 5d                	pop    %r13
  402176:	c3                   	ret    
  402177:	e8 9e 06 00 00       	call   40281a <__stack_chk_fail>

000000000040217c <touch3>:
  40217c:	f3 0f 1e fa          	endbr64 
  402180:	53                   	push   %rbx
  402181:	48 89 fb             	mov    %rdi,%rbx
  402184:	c7 05 8e 53 00 00 03 	movl   $0x3,0x538e(%rip)        # 40751c <vlevel>
  40218b:	00 00 00 
  40218e:	48 89 fe             	mov    %rdi,%rsi
  402191:	8b 3d 8d 53 00 00    	mov    0x538d(%rip),%edi        # 407524 <cookie>
  402197:	e8 25 ff ff ff       	call   4020c1 <hexmatch>
  40219c:	85 c0                	test   %eax,%eax
  40219e:	74 2d                	je     4021cd <touch3+0x51>
  4021a0:	48 89 da             	mov    %rbx,%rdx
  4021a3:	48 8d 35 de 21 00 00 	lea    0x21de(%rip),%rsi        # 404388 <_IO_stdin_used+0x388>
  4021aa:	bf 01 00 00 00       	mov    $0x1,%edi
  4021af:	b8 00 00 00 00       	mov    $0x0,%eax
  4021b4:	e8 07 f2 ff ff       	call   4013c0 <__printf_chk@plt>
  4021b9:	bf 03 00 00 00       	mov    $0x3,%edi
  4021be:	e8 e5 03 00 00       	call   4025a8 <validate>
  4021c3:	bf 00 00 00 00       	mov    $0x0,%edi
  4021c8:	e8 43 f2 ff ff       	call   401410 <exit@plt>
  4021cd:	48 89 da             	mov    %rbx,%rdx
  4021d0:	48 8d 35 d9 21 00 00 	lea    0x21d9(%rip),%rsi        # 4043b0 <_IO_stdin_used+0x3b0>
  4021d7:	bf 01 00 00 00       	mov    $0x1,%edi
  4021dc:	b8 00 00 00 00       	mov    $0x0,%eax
  4021e1:	e8 da f1 ff ff       	call   4013c0 <__printf_chk@plt>
  4021e6:	bf 03 00 00 00       	mov    $0x3,%edi
  4021eb:	e8 93 04 00 00       	call   402683 <fail>
  4021f0:	eb d1                	jmp    4021c3 <touch3+0x47>

00000000004021f2 <test>:
  4021f2:	f3 0f 1e fa          	endbr64 
  4021f6:	48 83 ec 08          	sub    $0x8,%rsp
  4021fa:	b8 00 00 00 00       	mov    $0x0,%eax
  4021ff:	e8 55 fd ff ff       	call   401f59 <getbuf>
  402204:	89 c2                	mov    %eax,%edx
  402206:	48 89 e0             	mov    %rsp,%rax
  402209:	48 83 e0 0f          	and    $0xf,%rax
  40220d:	74 07                	je     402216 <aligned4>
  40220f:	b9 00 00 00 00       	mov    $0x0,%ecx
  402214:	eb 05                	jmp    40221b <done4>

0000000000402216 <aligned4>:
  402216:	b9 01 00 00 00       	mov    $0x1,%ecx

000000000040221b <done4>:
  40221b:	85 c9                	test   %ecx,%ecx
  40221d:	75 23                	jne    402242 <done4+0x27>
  40221f:	48 83 ec 08          	sub    $0x8,%rsp
  402223:	48 8d 35 ae 21 00 00 	lea    0x21ae(%rip),%rsi        # 4043d8 <_IO_stdin_used+0x3d8>
  40222a:	bf 01 00 00 00       	mov    $0x1,%edi
  40222f:	b8 00 00 00 00       	mov    $0x0,%eax
  402234:	e8 87 f1 ff ff       	call   4013c0 <__printf_chk@plt>
  402239:	48 83 c4 08          	add    $0x8,%rsp
  40223d:	48 83 c4 08          	add    $0x8,%rsp
  402241:	c3                   	ret    
  402242:	48 8d 35 8f 21 00 00 	lea    0x218f(%rip),%rsi        # 4043d8 <_IO_stdin_used+0x3d8>
  402249:	bf 01 00 00 00       	mov    $0x1,%edi
  40224e:	b8 00 00 00 00       	mov    $0x0,%eax
  402253:	e8 68 f1 ff ff       	call   4013c0 <__printf_chk@plt>
  402258:	eb e3                	jmp    40223d <done4+0x22>

000000000040225a <test2>:
  40225a:	f3 0f 1e fa          	endbr64 
  40225e:	48 83 ec 08          	sub    $0x8,%rsp
  402262:	b8 00 00 00 00       	mov    $0x0,%eax
  402267:	e8 07 fd ff ff       	call   401f73 <getbuf_withcanary>
  40226c:	89 c2                	mov    %eax,%edx
  40226e:	48 8d 35 8b 21 00 00 	lea    0x218b(%rip),%rsi        # 404400 <_IO_stdin_used+0x400>
  402275:	bf 01 00 00 00       	mov    $0x1,%edi
  40227a:	b8 00 00 00 00       	mov    $0x0,%eax
  40227f:	e8 3c f1 ff ff       	call   4013c0 <__printf_chk@plt>
  402284:	48 83 c4 08          	add    $0x8,%rsp
  402288:	c3                   	ret    

0000000000402289 <save_char>:
  402289:	8b 05 b5 5e 00 00    	mov    0x5eb5(%rip),%eax        # 408144 <gets_cnt>
  40228f:	3d ff 03 00 00       	cmp    $0x3ff,%eax
  402294:	7f 4a                	jg     4022e0 <save_char+0x57>
  402296:	89 f9                	mov    %edi,%ecx
  402298:	c0 e9 04             	shr    $0x4,%cl
  40229b:	8d 14 40             	lea    (%rax,%rax,2),%edx
  40229e:	4c 8d 05 cb 24 00 00 	lea    0x24cb(%rip),%r8        # 404770 <trans_char>
  4022a5:	83 e1 0f             	and    $0xf,%ecx
  4022a8:	45 0f b6 0c 08       	movzbl (%r8,%rcx,1),%r9d
  4022ad:	48 8d 0d 8c 52 00 00 	lea    0x528c(%rip),%rcx        # 407540 <gets_buf>
  4022b4:	48 63 f2             	movslq %edx,%rsi
  4022b7:	44 88 0c 31          	mov    %r9b,(%rcx,%rsi,1)
  4022bb:	8d 72 01             	lea    0x1(%rdx),%esi
  4022be:	83 e7 0f             	and    $0xf,%edi
  4022c1:	41 0f b6 3c 38       	movzbl (%r8,%rdi,1),%edi
  4022c6:	48 63 f6             	movslq %esi,%rsi
  4022c9:	40 88 3c 31          	mov    %dil,(%rcx,%rsi,1)
  4022cd:	83 c2 02             	add    $0x2,%edx
  4022d0:	48 63 d2             	movslq %edx,%rdx
  4022d3:	c6 04 11 20          	movb   $0x20,(%rcx,%rdx,1)
  4022d7:	83 c0 01             	add    $0x1,%eax
  4022da:	89 05 64 5e 00 00    	mov    %eax,0x5e64(%rip)        # 408144 <gets_cnt>
  4022e0:	c3                   	ret    

00000000004022e1 <save_term>:
  4022e1:	8b 05 5d 5e 00 00    	mov    0x5e5d(%rip),%eax        # 408144 <gets_cnt>
  4022e7:	8d 04 40             	lea    (%rax,%rax,2),%eax
  4022ea:	48 98                	cltq   
  4022ec:	48 8d 15 4d 52 00 00 	lea    0x524d(%rip),%rdx        # 407540 <gets_buf>
  4022f3:	c6 04 02 00          	movb   $0x0,(%rdx,%rax,1)
  4022f7:	c3                   	ret    

00000000004022f8 <check_fail>:
  4022f8:	f3 0f 1e fa          	endbr64 
  4022fc:	50                   	push   %rax
  4022fd:	58                   	pop    %rax
  4022fe:	48 83 ec 08          	sub    $0x8,%rsp
  402302:	0f be 15 3f 5e 00 00 	movsbl 0x5e3f(%rip),%edx        # 408148 <target_prefix>
  402309:	4c 8d 05 30 52 00 00 	lea    0x5230(%rip),%r8        # 407540 <gets_buf>
  402310:	8b 0d 02 52 00 00    	mov    0x5202(%rip),%ecx        # 407518 <check_level>
  402316:	48 8d 35 11 21 00 00 	lea    0x2111(%rip),%rsi        # 40442e <_IO_stdin_used+0x42e>
  40231d:	bf 01 00 00 00       	mov    $0x1,%edi
  402322:	b8 00 00 00 00       	mov    $0x0,%eax
  402327:	e8 94 f0 ff ff       	call   4013c0 <__printf_chk@plt>
  40232c:	bf 01 00 00 00       	mov    $0x1,%edi
  402331:	e8 da f0 ff ff       	call   401410 <exit@plt>

0000000000402336 <Gets>:
  402336:	f3 0f 1e fa          	endbr64 
  40233a:	41 54                	push   %r12
  40233c:	55                   	push   %rbp
  40233d:	53                   	push   %rbx
  40233e:	49 89 fc             	mov    %rdi,%r12
  402341:	c7 05 f9 5d 00 00 00 	movl   $0x0,0x5df9(%rip)        # 408144 <gets_cnt>
  402348:	00 00 00 
  40234b:	48 89 fb             	mov    %rdi,%rbx
  40234e:	48 8b 3d bb 51 00 00 	mov    0x51bb(%rip),%rdi        # 407510 <infile>
  402355:	e8 e6 f0 ff ff       	call   401440 <getc@plt>
  40235a:	83 f8 ff             	cmp    $0xffffffff,%eax
  40235d:	74 18                	je     402377 <Gets+0x41>
  40235f:	83 f8 0a             	cmp    $0xa,%eax
  402362:	74 13                	je     402377 <Gets+0x41>
  402364:	48 8d 6b 01          	lea    0x1(%rbx),%rbp
  402368:	88 03                	mov    %al,(%rbx)
  40236a:	0f b6 f8             	movzbl %al,%edi
  40236d:	e8 17 ff ff ff       	call   402289 <save_char>
  402372:	48 89 eb             	mov    %rbp,%rbx
  402375:	eb d7                	jmp    40234e <Gets+0x18>
  402377:	c6 03 00             	movb   $0x0,(%rbx)
  40237a:	b8 00 00 00 00       	mov    $0x0,%eax
  40237f:	e8 5d ff ff ff       	call   4022e1 <save_term>
  402384:	4c 89 e0             	mov    %r12,%rax
  402387:	5b                   	pop    %rbx
  402388:	5d                   	pop    %rbp
  402389:	41 5c                	pop    %r12
  40238b:	c3                   	ret    

000000000040238c <notify_server>:
  40238c:	f3 0f 1e fa          	endbr64 
  402390:	55                   	push   %rbp
  402391:	53                   	push   %rbx
  402392:	4c 8d 9c 24 00 c0 ff 	lea    -0x4000(%rsp),%r11
  402399:	ff 
  40239a:	48 81 ec 00 10 00 00 	sub    $0x1000,%rsp
  4023a1:	48 83 0c 24 00       	orq    $0x0,(%rsp)
  4023a6:	4c 39 dc             	cmp    %r11,%rsp
  4023a9:	75 ef                	jne    40239a <notify_server+0xe>
  4023ab:	48 83 ec 18          	sub    $0x18,%rsp
  4023af:	64 48 8b 04 25 28 00 	mov    %fs:0x28,%rax
  4023b6:	00 00 
  4023b8:	48 89 84 24 08 40 00 	mov    %rax,0x4008(%rsp)
  4023bf:	00 
  4023c0:	31 c0                	xor    %eax,%eax
  4023c2:	83 3d 5f 51 00 00 00 	cmpl   $0x0,0x515f(%rip)        # 407528 <is_checker>
  4023c9:	0f 85 b7 01 00 00    	jne    402586 <notify_server+0x1fa>
  4023cf:	89 fb                	mov    %edi,%ebx
  4023d1:	81 3d 69 5d 00 00 9c 	cmpl   $0x1f9c,0x5d69(%rip)        # 408144 <gets_cnt>
  4023d8:	1f 00 00 
  4023db:	7f 18                	jg     4023f5 <notify_server+0x69>
  4023dd:	0f be 05 64 5d 00 00 	movsbl 0x5d64(%rip),%eax        # 408148 <target_prefix>
  4023e4:	83 3d b5 50 00 00 00 	cmpl   $0x0,0x50b5(%rip)        # 4074a0 <notify>
  4023eb:	74 23                	je     402410 <notify_server+0x84>
  4023ed:	8b 15 2d 51 00 00    	mov    0x512d(%rip),%edx        # 407520 <authkey>
  4023f3:	eb 20                	jmp    402415 <notify_server+0x89>
  4023f5:	48 8d 35 5c 21 00 00 	lea    0x215c(%rip),%rsi        # 404558 <_IO_stdin_used+0x558>
  4023fc:	bf 01 00 00 00       	mov    $0x1,%edi
  402401:	e8 ba ef ff ff       	call   4013c0 <__printf_chk@plt>
  402406:	bf 01 00 00 00       	mov    $0x1,%edi
  40240b:	e8 00 f0 ff ff       	call   401410 <exit@plt>
  402410:	ba ff ff ff ff       	mov    $0xffffffff,%edx
  402415:	85 db                	test   %ebx,%ebx
  402417:	0f 84 9b 00 00 00    	je     4024b8 <notify_server+0x12c>
  40241d:	48 8d 2d 25 20 00 00 	lea    0x2025(%rip),%rbp        # 404449 <_IO_stdin_used+0x449>
  402424:	48 89 e7             	mov    %rsp,%rdi
  402427:	48 8d 0d 12 51 00 00 	lea    0x5112(%rip),%rcx        # 407540 <gets_buf>
  40242e:	51                   	push   %rcx
  40242f:	56                   	push   %rsi
  402430:	50                   	push   %rax
  402431:	52                   	push   %rdx
  402432:	49 89 e9             	mov    %rbp,%r9
  402435:	44 8b 05 14 4d 00 00 	mov    0x4d14(%rip),%r8d        # 407150 <target_id>
  40243c:	48 8d 0d 0b 20 00 00 	lea    0x200b(%rip),%rcx        # 40444e <_IO_stdin_used+0x44e>
  402443:	ba 00 20 00 00       	mov    $0x2000,%edx
  402448:	be 01 00 00 00       	mov    $0x1,%esi
  40244d:	b8 00 00 00 00       	mov    $0x0,%eax
  402452:	e8 f9 ef ff ff       	call   401450 <__sprintf_chk@plt>
  402457:	48 83 c4 20          	add    $0x20,%rsp
  40245b:	83 3d 3e 50 00 00 00 	cmpl   $0x0,0x503e(%rip)        # 4074a0 <notify>
  402462:	0f 84 95 00 00 00    	je     4024fd <notify_server+0x171>
  402468:	48 89 e1             	mov    %rsp,%rcx
  40246b:	4c 8d 8c 24 00 20 00 	lea    0x2000(%rsp),%r9
  402472:	00 
  402473:	41 b8 00 00 00 00    	mov    $0x0,%r8d
  402479:	48 8b 15 e8 4c 00 00 	mov    0x4ce8(%rip),%rdx        # 407168 <lab>
  402480:	48 8b 35 e9 4c 00 00 	mov    0x4ce9(%rip),%rsi        # 407170 <course>
  402487:	48 8b 3d d2 4c 00 00 	mov    0x4cd2(%rip),%rdi        # 407160 <user_id>
  40248e:	e8 75 12 00 00       	call   403708 <driver_post>
  402493:	85 c0                	test   %eax,%eax
  402495:	78 2d                	js     4024c4 <notify_server+0x138>
  402497:	85 db                	test   %ebx,%ebx
  402499:	74 51                	je     4024ec <notify_server+0x160>
  40249b:	48 8d 3d e6 20 00 00 	lea    0x20e6(%rip),%rdi        # 404588 <_IO_stdin_used+0x588>
  4024a2:	e8 09 ee ff ff       	call   4012b0 <puts@plt>
  4024a7:	48 8d 3d c8 1f 00 00 	lea    0x1fc8(%rip),%rdi        # 404476 <_IO_stdin_used+0x476>
  4024ae:	e8 fd ed ff ff       	call   4012b0 <puts@plt>
  4024b3:	e9 ce 00 00 00       	jmp    402586 <notify_server+0x1fa>
  4024b8:	48 8d 2d 85 1f 00 00 	lea    0x1f85(%rip),%rbp        # 404444 <_IO_stdin_used+0x444>
  4024bf:	e9 60 ff ff ff       	jmp    402424 <notify_server+0x98>
  4024c4:	48 8d 94 24 00 20 00 	lea    0x2000(%rsp),%rdx
  4024cb:	00 
  4024cc:	48 8d 35 97 1f 00 00 	lea    0x1f97(%rip),%rsi        # 40446a <_IO_stdin_used+0x46a>
  4024d3:	bf 01 00 00 00       	mov    $0x1,%edi
  4024d8:	b8 00 00 00 00       	mov    $0x0,%eax
  4024dd:	e8 de ee ff ff       	call   4013c0 <__printf_chk@plt>
  4024e2:	bf 01 00 00 00       	mov    $0x1,%edi
  4024e7:	e8 24 ef ff ff       	call   401410 <exit@plt>
  4024ec:	48 8d 3d 8d 1f 00 00 	lea    0x1f8d(%rip),%rdi        # 404480 <_IO_stdin_used+0x480>
  4024f3:	e8 b8 ed ff ff       	call   4012b0 <puts@plt>
  4024f8:	e9 89 00 00 00       	jmp    402586 <notify_server+0x1fa>
  4024fd:	48 89 ea             	mov    %rbp,%rdx
  402500:	48 8d 35 b9 20 00 00 	lea    0x20b9(%rip),%rsi        # 4045c0 <_IO_stdin_used+0x5c0>
  402507:	bf 01 00 00 00       	mov    $0x1,%edi
  40250c:	b8 00 00 00 00       	mov    $0x0,%eax
  402511:	e8 aa ee ff ff       	call   4013c0 <__printf_chk@plt>
  402516:	48 8b 15 43 4c 00 00 	mov    0x4c43(%rip),%rdx        # 407160 <user_id>
  40251d:	48 8d 35 63 1f 00 00 	lea    0x1f63(%rip),%rsi        # 404487 <_IO_stdin_used+0x487>
  402524:	bf 01 00 00 00       	mov    $0x1,%edi
  402529:	b8 00 00 00 00       	mov    $0x0,%eax
  40252e:	e8 8d ee ff ff       	call   4013c0 <__printf_chk@plt>
  402533:	48 8b 15 36 4c 00 00 	mov    0x4c36(%rip),%rdx        # 407170 <course>
  40253a:	48 8d 35 53 1f 00 00 	lea    0x1f53(%rip),%rsi        # 404494 <_IO_stdin_used+0x494>
  402541:	bf 01 00 00 00       	mov    $0x1,%edi
  402546:	b8 00 00 00 00       	mov    $0x0,%eax
  40254b:	e8 70 ee ff ff       	call   4013c0 <__printf_chk@plt>
  402550:	48 8b 15 11 4c 00 00 	mov    0x4c11(%rip),%rdx        # 407168 <lab>
  402557:	48 8d 35 42 1f 00 00 	lea    0x1f42(%rip),%rsi        # 4044a0 <_IO_stdin_used+0x4a0>
  40255e:	bf 01 00 00 00       	mov    $0x1,%edi
  402563:	b8 00 00 00 00       	mov    $0x0,%eax
  402568:	e8 53 ee ff ff       	call   4013c0 <__printf_chk@plt>
  40256d:	48 89 e2             	mov    %rsp,%rdx
  402570:	48 8d 35 32 1f 00 00 	lea    0x1f32(%rip),%rsi        # 4044a9 <_IO_stdin_used+0x4a9>
  402577:	bf 01 00 00 00       	mov    $0x1,%edi
  40257c:	b8 00 00 00 00       	mov    $0x0,%eax
  402581:	e8 3a ee ff ff       	call   4013c0 <__printf_chk@plt>
  402586:	48 8b 84 24 08 40 00 	mov    0x4008(%rsp),%rax
  40258d:	00 
  40258e:	64 48 33 04 25 28 00 	xor    %fs:0x28,%rax
  402595:	00 00 
  402597:	75 0a                	jne    4025a3 <notify_server+0x217>
  402599:	48 81 c4 18 40 00 00 	add    $0x4018,%rsp
  4025a0:	5b                   	pop    %rbx
  4025a1:	5d                   	pop    %rbp
  4025a2:	c3                   	ret    
  4025a3:	e8 72 02 00 00       	call   40281a <__stack_chk_fail>

00000000004025a8 <validate>:
  4025a8:	f3 0f 1e fa          	endbr64 
  4025ac:	53                   	push   %rbx
  4025ad:	89 fb                	mov    %edi,%ebx
  4025af:	83 3d 72 4f 00 00 00 	cmpl   $0x0,0x4f72(%rip)        # 407528 <is_checker>
  4025b6:	74 79                	je     402631 <validate+0x89>
  4025b8:	39 3d 5e 4f 00 00    	cmp    %edi,0x4f5e(%rip)        # 40751c <vlevel>
  4025be:	75 39                	jne    4025f9 <validate+0x51>
  4025c0:	8b 15 52 4f 00 00    	mov    0x4f52(%rip),%edx        # 407518 <check_level>
  4025c6:	39 fa                	cmp    %edi,%edx
  4025c8:	75 45                	jne    40260f <validate+0x67>
  4025ca:	0f be 0d 77 5b 00 00 	movsbl 0x5b77(%rip),%ecx        # 408148 <target_prefix>
  4025d1:	4c 8d 0d 68 4f 00 00 	lea    0x4f68(%rip),%r9        # 407540 <gets_buf>
  4025d8:	41 89 f8             	mov    %edi,%r8d
  4025db:	8b 15 3f 4f 00 00    	mov    0x4f3f(%rip),%edx        # 407520 <authkey>
  4025e1:	48 8d 35 28 20 00 00 	lea    0x2028(%rip),%rsi        # 404610 <_IO_stdin_used+0x610>
  4025e8:	bf 01 00 00 00       	mov    $0x1,%edi
  4025ed:	b8 00 00 00 00       	mov    $0x0,%eax
  4025f2:	e8 c9 ed ff ff       	call   4013c0 <__printf_chk@plt>
  4025f7:	5b                   	pop    %rbx
  4025f8:	c3                   	ret    
  4025f9:	48 8d 3d b5 1e 00 00 	lea    0x1eb5(%rip),%rdi        # 4044b5 <_IO_stdin_used+0x4b5>
  402600:	e8 ab ec ff ff       	call   4012b0 <puts@plt>
  402605:	b8 00 00 00 00       	mov    $0x0,%eax
  40260a:	e8 e9 fc ff ff       	call   4022f8 <check_fail>
  40260f:	89 f9                	mov    %edi,%ecx
  402611:	48 8d 35 d0 1f 00 00 	lea    0x1fd0(%rip),%rsi        # 4045e8 <_IO_stdin_used+0x5e8>
  402618:	bf 01 00 00 00       	mov    $0x1,%edi
  40261d:	b8 00 00 00 00       	mov    $0x0,%eax
  402622:	e8 99 ed ff ff       	call   4013c0 <__printf_chk@plt>
  402627:	b8 00 00 00 00       	mov    $0x0,%eax
  40262c:	e8 c7 fc ff ff       	call   4022f8 <check_fail>
  402631:	39 3d e5 4e 00 00    	cmp    %edi,0x4ee5(%rip)        # 40751c <vlevel>
  402637:	74 1a                	je     402653 <validate+0xab>
  402639:	48 8d 3d 75 1e 00 00 	lea    0x1e75(%rip),%rdi        # 4044b5 <_IO_stdin_used+0x4b5>
  402640:	e8 6b ec ff ff       	call   4012b0 <puts@plt>
  402645:	89 de                	mov    %ebx,%esi
  402647:	bf 00 00 00 00       	mov    $0x0,%edi
  40264c:	e8 3b fd ff ff       	call   40238c <notify_server>
  402651:	eb a4                	jmp    4025f7 <validate+0x4f>
  402653:	0f be 0d ee 5a 00 00 	movsbl 0x5aee(%rip),%ecx        # 408148 <target_prefix>
  40265a:	89 fa                	mov    %edi,%edx
  40265c:	48 8d 35 d5 1f 00 00 	lea    0x1fd5(%rip),%rsi        # 404638 <_IO_stdin_used+0x638>
  402663:	bf 01 00 00 00       	mov    $0x1,%edi
  402668:	b8 00 00 00 00       	mov    $0x0,%eax
  40266d:	e8 4e ed ff ff       	call   4013c0 <__printf_chk@plt>
  402672:	89 de                	mov    %ebx,%esi
  402674:	bf 01 00 00 00       	mov    $0x1,%edi
  402679:	e8 0e fd ff ff       	call   40238c <notify_server>
  40267e:	e9 74 ff ff ff       	jmp    4025f7 <validate+0x4f>

0000000000402683 <fail>:
  402683:	f3 0f 1e fa          	endbr64 
  402687:	48 83 ec 08          	sub    $0x8,%rsp
  40268b:	83 3d 96 4e 00 00 00 	cmpl   $0x0,0x4e96(%rip)        # 407528 <is_checker>
  402692:	75 11                	jne    4026a5 <fail+0x22>
  402694:	89 fe                	mov    %edi,%esi
  402696:	bf 00 00 00 00       	mov    $0x0,%edi
  40269b:	e8 ec fc ff ff       	call   40238c <notify_server>
  4026a0:	48 83 c4 08          	add    $0x8,%rsp
  4026a4:	c3                   	ret    
  4026a5:	b8 00 00 00 00       	mov    $0x0,%eax
  4026aa:	e8 49 fc ff ff       	call   4022f8 <check_fail>

00000000004026af <bushandler>:
  4026af:	f3 0f 1e fa          	endbr64 
  4026b3:	50                   	push   %rax
  4026b4:	58                   	pop    %rax
  4026b5:	48 83 ec 08          	sub    $0x8,%rsp
  4026b9:	83 3d 68 4e 00 00 00 	cmpl   $0x0,0x4e68(%rip)        # 407528 <is_checker>
  4026c0:	74 16                	je     4026d8 <bushandler+0x29>
  4026c2:	48 8d 3d 0a 1e 00 00 	lea    0x1e0a(%rip),%rdi        # 4044d3 <_IO_stdin_used+0x4d3>
  4026c9:	e8 e2 eb ff ff       	call   4012b0 <puts@plt>
  4026ce:	b8 00 00 00 00       	mov    $0x0,%eax
  4026d3:	e8 20 fc ff ff       	call   4022f8 <check_fail>
  4026d8:	48 8d 3d 91 1f 00 00 	lea    0x1f91(%rip),%rdi        # 404670 <_IO_stdin_used+0x670>
  4026df:	e8 cc eb ff ff       	call   4012b0 <puts@plt>
  4026e4:	48 8d 3d f2 1d 00 00 	lea    0x1df2(%rip),%rdi        # 4044dd <_IO_stdin_used+0x4dd>
  4026eb:	e8 c0 eb ff ff       	call   4012b0 <puts@plt>
  4026f0:	be 00 00 00 00       	mov    $0x0,%esi
  4026f5:	bf 00 00 00 00       	mov    $0x0,%edi
  4026fa:	e8 8d fc ff ff       	call   40238c <notify_server>
  4026ff:	bf 01 00 00 00       	mov    $0x1,%edi
  402704:	e8 07 ed ff ff       	call   401410 <exit@plt>

0000000000402709 <seghandler>:
  402709:	f3 0f 1e fa          	endbr64 
  40270d:	50                   	push   %rax
  40270e:	58                   	pop    %rax
  40270f:	48 83 ec 08          	sub    $0x8,%rsp
  402713:	83 3d 0e 4e 00 00 00 	cmpl   $0x0,0x4e0e(%rip)        # 407528 <is_checker>
  40271a:	74 16                	je     402732 <seghandler+0x29>
  40271c:	48 8d 3d d0 1d 00 00 	lea    0x1dd0(%rip),%rdi        # 4044f3 <_IO_stdin_used+0x4f3>
  402723:	e8 88 eb ff ff       	call   4012b0 <puts@plt>
  402728:	b8 00 00 00 00       	mov    $0x0,%eax
  40272d:	e8 c6 fb ff ff       	call   4022f8 <check_fail>
  402732:	48 8d 3d 57 1f 00 00 	lea    0x1f57(%rip),%rdi        # 404690 <_IO_stdin_used+0x690>
  402739:	e8 72 eb ff ff       	call   4012b0 <puts@plt>
  40273e:	48 8d 3d 98 1d 00 00 	lea    0x1d98(%rip),%rdi        # 4044dd <_IO_stdin_used+0x4dd>
  402745:	e8 66 eb ff ff       	call   4012b0 <puts@plt>
  40274a:	be 00 00 00 00       	mov    $0x0,%esi
  40274f:	bf 00 00 00 00       	mov    $0x0,%edi
  402754:	e8 33 fc ff ff       	call   40238c <notify_server>
  402759:	bf 01 00 00 00       	mov    $0x1,%edi
  40275e:	e8 ad ec ff ff       	call   401410 <exit@plt>

0000000000402763 <illegalhandler>:
  402763:	f3 0f 1e fa          	endbr64 
  402767:	50                   	push   %rax
  402768:	58                   	pop    %rax
  402769:	48 83 ec 08          	sub    $0x8,%rsp
  40276d:	83 3d b4 4d 00 00 00 	cmpl   $0x0,0x4db4(%rip)        # 407528 <is_checker>
  402774:	74 16                	je     40278c <illegalhandler+0x29>
  402776:	48 8d 3d 89 1d 00 00 	lea    0x1d89(%rip),%rdi        # 404506 <_IO_stdin_used+0x506>
  40277d:	e8 2e eb ff ff       	call   4012b0 <puts@plt>
  402782:	b8 00 00 00 00       	mov    $0x0,%eax
  402787:	e8 6c fb ff ff       	call   4022f8 <check_fail>
  40278c:	48 8d 3d 25 1f 00 00 	lea    0x1f25(%rip),%rdi        # 4046b8 <_IO_stdin_used+0x6b8>
  402793:	e8 18 eb ff ff       	call   4012b0 <puts@plt>
  402798:	48 8d 3d 3e 1d 00 00 	lea    0x1d3e(%rip),%rdi        # 4044dd <_IO_stdin_used+0x4dd>
  40279f:	e8 0c eb ff ff       	call   4012b0 <puts@plt>
  4027a4:	be 00 00 00 00       	mov    $0x0,%esi
  4027a9:	bf 00 00 00 00       	mov    $0x0,%edi
  4027ae:	e8 d9 fb ff ff       	call   40238c <notify_server>
  4027b3:	bf 01 00 00 00       	mov    $0x1,%edi
  4027b8:	e8 53 ec ff ff       	call   401410 <exit@plt>

00000000004027bd <sigalrmhandler>:
  4027bd:	f3 0f 1e fa          	endbr64 
  4027c1:	50                   	push   %rax
  4027c2:	58                   	pop    %rax
  4027c3:	48 83 ec 08          	sub    $0x8,%rsp
  4027c7:	83 3d 5a 4d 00 00 00 	cmpl   $0x0,0x4d5a(%rip)        # 407528 <is_checker>
  4027ce:	74 16                	je     4027e6 <sigalrmhandler+0x29>
  4027d0:	48 8d 3d 43 1d 00 00 	lea    0x1d43(%rip),%rdi        # 40451a <_IO_stdin_used+0x51a>
  4027d7:	e8 d4 ea ff ff       	call   4012b0 <puts@plt>
  4027dc:	b8 00 00 00 00       	mov    $0x0,%eax
  4027e1:	e8 12 fb ff ff       	call   4022f8 <check_fail>
  4027e6:	ba 02 00 00 00       	mov    $0x2,%edx
  4027eb:	48 8d 35 f6 1e 00 00 	lea    0x1ef6(%rip),%rsi        # 4046e8 <_IO_stdin_used+0x6e8>
  4027f2:	bf 01 00 00 00       	mov    $0x1,%edi
  4027f7:	b8 00 00 00 00       	mov    $0x0,%eax
  4027fc:	e8 bf eb ff ff       	call   4013c0 <__printf_chk@plt>
  402801:	be 00 00 00 00       	mov    $0x0,%esi
  402806:	bf 00 00 00 00       	mov    $0x0,%edi
  40280b:	e8 7c fb ff ff       	call   40238c <notify_server>
  402810:	bf 01 00 00 00       	mov    $0x1,%edi
  402815:	e8 f6 eb ff ff       	call   401410 <exit@plt>

000000000040281a <__stack_chk_fail>:
  40281a:	f3 0f 1e fa          	endbr64 
  40281e:	50                   	push   %rax
  40281f:	58                   	pop    %rax
  402820:	48 83 ec 08          	sub    $0x8,%rsp
  402824:	83 3d fd 4c 00 00 00 	cmpl   $0x0,0x4cfd(%rip)        # 407528 <is_checker>
  40282b:	74 16                	je     402843 <__stack_chk_fail+0x29>
  40282d:	48 8d 3d ee 1c 00 00 	lea    0x1cee(%rip),%rdi        # 404522 <_IO_stdin_used+0x522>
  402834:	e8 77 ea ff ff       	call   4012b0 <puts@plt>
  402839:	b8 00 00 00 00       	mov    $0x0,%eax
  40283e:	e8 b5 fa ff ff       	call   4022f8 <check_fail>
  402843:	48 8d 3d d6 1e 00 00 	lea    0x1ed6(%rip),%rdi        # 404720 <_IO_stdin_used+0x720>
  40284a:	e8 61 ea ff ff       	call   4012b0 <puts@plt>
  40284f:	48 8d 3d 87 1c 00 00 	lea    0x1c87(%rip),%rdi        # 4044dd <_IO_stdin_used+0x4dd>
  402856:	e8 55 ea ff ff       	call   4012b0 <puts@plt>
  40285b:	be 00 00 00 00       	mov    $0x0,%esi
  402860:	bf 00 00 00 00       	mov    $0x0,%edi
  402865:	e8 22 fb ff ff       	call   40238c <notify_server>
  40286a:	bf 01 00 00 00       	mov    $0x1,%edi
  40286f:	e8 9c eb ff ff       	call   401410 <exit@plt>

0000000000402874 <launch>:
  402874:	f3 0f 1e fa          	endbr64 
  402878:	55                   	push   %rbp
  402879:	48 89 e5             	mov    %rsp,%rbp
  40287c:	53                   	push   %rbx
  40287d:	48 83 ec 18          	sub    $0x18,%rsp
  402881:	48 89 fa             	mov    %rdi,%rdx
  402884:	89 f3                	mov    %esi,%ebx
  402886:	64 48 8b 04 25 28 00 	mov    %fs:0x28,%rax
  40288d:	00 00 
  40288f:	48 89 45 e8          	mov    %rax,-0x18(%rbp)
  402893:	31 c0                	xor    %eax,%eax
  402895:	48 8d 47 17          	lea    0x17(%rdi),%rax
  402899:	48 89 c1             	mov    %rax,%rcx
  40289c:	48 83 e1 f0          	and    $0xfffffffffffffff0,%rcx
  4028a0:	48 25 00 f0 ff ff    	and    $0xfffffffffffff000,%rax
  4028a6:	48 89 e6             	mov    %rsp,%rsi
  4028a9:	48 29 c6             	sub    %rax,%rsi
  4028ac:	48 89 f0             	mov    %rsi,%rax
  4028af:	48 39 c4             	cmp    %rax,%rsp
  4028b2:	74 12                	je     4028c6 <launch+0x52>
  4028b4:	48 81 ec 00 10 00 00 	sub    $0x1000,%rsp
  4028bb:	48 83 8c 24 f8 0f 00 	orq    $0x0,0xff8(%rsp)
  4028c2:	00 00 
  4028c4:	eb e9                	jmp    4028af <launch+0x3b>
  4028c6:	48 89 c8             	mov    %rcx,%rax
  4028c9:	25 ff 0f 00 00       	and    $0xfff,%eax
  4028ce:	48 29 c4             	sub    %rax,%rsp
  4028d1:	48 85 c0             	test   %rax,%rax
  4028d4:	74 06                	je     4028dc <launch+0x68>
  4028d6:	48 83 4c 04 f8 00    	orq    $0x0,-0x8(%rsp,%rax,1)
  4028dc:	48 8d 7c 24 0f       	lea    0xf(%rsp),%rdi
  4028e1:	48 83 e7 f0          	and    $0xfffffffffffffff0,%rdi
  4028e5:	be f4 00 00 00       	mov    $0xf4,%esi
  4028ea:	e8 f1 e9 ff ff       	call   4012e0 <memset@plt>
  4028ef:	48 8b 05 ca 4b 00 00 	mov    0x4bca(%rip),%rax        # 4074c0 <stdin@GLIBC_2.2.5>
  4028f6:	48 39 05 13 4c 00 00 	cmp    %rax,0x4c13(%rip)        # 407510 <infile>
  4028fd:	74 42                	je     402941 <launch+0xcd>
  4028ff:	c7 05 13 4c 00 00 00 	movl   $0x0,0x4c13(%rip)        # 40751c <vlevel>
  402906:	00 00 00 
  402909:	85 db                	test   %ebx,%ebx
  40290b:	75 42                	jne    40294f <launch+0xdb>
  40290d:	b8 00 00 00 00       	mov    $0x0,%eax
  402912:	e8 db f8 ff ff       	call   4021f2 <test>
  402917:	83 3d 0a 4c 00 00 00 	cmpl   $0x0,0x4c0a(%rip)        # 407528 <is_checker>
  40291e:	75 3b                	jne    40295b <launch+0xe7>
  402920:	48 8d 3d 22 1c 00 00 	lea    0x1c22(%rip),%rdi        # 404549 <_IO_stdin_used+0x549>
  402927:	e8 84 e9 ff ff       	call   4012b0 <puts@plt>
  40292c:	48 8b 45 e8          	mov    -0x18(%rbp),%rax
  402930:	64 48 33 04 25 28 00 	xor    %fs:0x28,%rax
  402937:	00 00 
  402939:	75 36                	jne    402971 <launch+0xfd>
  40293b:	48 8b 5d f8          	mov    -0x8(%rbp),%rbx
  40293f:	c9                   	leave  
  402940:	c3                   	ret    
  402941:	48 8d 3d e9 1b 00 00 	lea    0x1be9(%rip),%rdi        # 404531 <_IO_stdin_used+0x531>
  402948:	e8 63 e9 ff ff       	call   4012b0 <puts@plt>
  40294d:	eb b0                	jmp    4028ff <launch+0x8b>
  40294f:	b8 00 00 00 00       	mov    $0x0,%eax
  402954:	e8 01 f9 ff ff       	call   40225a <test2>
  402959:	eb bc                	jmp    402917 <launch+0xa3>
  40295b:	48 8d 3d dc 1b 00 00 	lea    0x1bdc(%rip),%rdi        # 40453e <_IO_stdin_used+0x53e>
  402962:	e8 49 e9 ff ff       	call   4012b0 <puts@plt>
  402967:	b8 00 00 00 00       	mov    $0x0,%eax
  40296c:	e8 87 f9 ff ff       	call   4022f8 <check_fail>
  402971:	e8 a4 fe ff ff       	call   40281a <__stack_chk_fail>

0000000000402976 <stable_launch>:
  402976:	f3 0f 1e fa          	endbr64 
  40297a:	55                   	push   %rbp
  40297b:	53                   	push   %rbx
  40297c:	48 83 ec 08          	sub    $0x8,%rsp
  402980:	89 f5                	mov    %esi,%ebp
  402982:	48 89 3d 7f 4b 00 00 	mov    %rdi,0x4b7f(%rip)        # 407508 <global_offset>
  402989:	41 b9 00 00 00 00    	mov    $0x0,%r9d
  40298f:	41 b8 00 00 00 00    	mov    $0x0,%r8d
  402995:	b9 32 01 00 00       	mov    $0x132,%ecx
  40299a:	ba 07 00 00 00       	mov    $0x7,%edx
  40299f:	be 00 00 10 00       	mov    $0x100000,%esi
  4029a4:	bf 00 60 58 55       	mov    $0x55586000,%edi
  4029a9:	e8 22 e9 ff ff       	call   4012d0 <mmap@plt>
  4029ae:	48 89 c3             	mov    %rax,%rbx
  4029b1:	48 3d 00 60 58 55    	cmp    $0x55586000,%rax
  4029b7:	75 4a                	jne    402a03 <stable_launch+0x8d>
  4029b9:	48 8d 90 f8 ff 0f 00 	lea    0xffff8(%rax),%rdx
  4029c0:	48 89 15 89 57 00 00 	mov    %rdx,0x5789(%rip)        # 408150 <stack_top>
  4029c7:	48 89 e0             	mov    %rsp,%rax
  4029ca:	48 89 d4             	mov    %rdx,%rsp
  4029cd:	48 89 c2             	mov    %rax,%rdx
  4029d0:	48 89 15 29 4b 00 00 	mov    %rdx,0x4b29(%rip)        # 407500 <global_save_stack>
  4029d7:	89 ee                	mov    %ebp,%esi
  4029d9:	48 8b 3d 28 4b 00 00 	mov    0x4b28(%rip),%rdi        # 407508 <global_offset>
  4029e0:	e8 8f fe ff ff       	call   402874 <launch>
  4029e5:	48 8b 05 14 4b 00 00 	mov    0x4b14(%rip),%rax        # 407500 <global_save_stack>
  4029ec:	48 89 c4             	mov    %rax,%rsp
  4029ef:	be 00 00 10 00       	mov    $0x100000,%esi
  4029f4:	48 89 df             	mov    %rbx,%rdi
  4029f7:	e8 b4 e9 ff ff       	call   4013b0 <munmap@plt>
  4029fc:	48 83 c4 08          	add    $0x8,%rsp
  402a00:	5b                   	pop    %rbx
  402a01:	5d                   	pop    %rbp
  402a02:	c3                   	ret    
  402a03:	be 00 00 10 00       	mov    $0x100000,%esi
  402a08:	48 89 c7             	mov    %rax,%rdi
  402a0b:	e8 a0 e9 ff ff       	call   4013b0 <munmap@plt>
  402a10:	b9 00 60 58 55       	mov    $0x55586000,%ecx
  402a15:	48 8d 15 2c 1d 00 00 	lea    0x1d2c(%rip),%rdx        # 404748 <_IO_stdin_used+0x748>
  402a1c:	be 01 00 00 00       	mov    $0x1,%esi
  402a21:	48 8b 3d b8 4a 00 00 	mov    0x4ab8(%rip),%rdi        # 4074e0 <stderr@GLIBC_2.2.5>
  402a28:	b8 00 00 00 00       	mov    $0x0,%eax
  402a2d:	e8 fe e9 ff ff       	call   401430 <__fprintf_chk@plt>
  402a32:	bf 01 00 00 00       	mov    $0x1,%edi
  402a37:	e8 d4 e9 ff ff       	call   401410 <exit@plt>

0000000000402a3c <rio_readinitb>:
  402a3c:	89 37                	mov    %esi,(%rdi)
  402a3e:	c7 47 04 00 00 00 00 	movl   $0x0,0x4(%rdi)
  402a45:	48 8d 47 10          	lea    0x10(%rdi),%rax
  402a49:	48 89 47 08          	mov    %rax,0x8(%rdi)
  402a4d:	c3                   	ret    

0000000000402a4e <sigalrm_handler>:
  402a4e:	f3 0f 1e fa          	endbr64 
  402a52:	50                   	push   %rax
  402a53:	58                   	pop    %rax
  402a54:	48 83 ec 08          	sub    $0x8,%rsp
  402a58:	b9 00 00 00 00       	mov    $0x0,%ecx
  402a5d:	48 8d 15 1c 1d 00 00 	lea    0x1d1c(%rip),%rdx        # 404780 <trans_char+0x10>
  402a64:	be 01 00 00 00       	mov    $0x1,%esi
  402a69:	48 8b 3d 70 4a 00 00 	mov    0x4a70(%rip),%rdi        # 4074e0 <stderr@GLIBC_2.2.5>
  402a70:	b8 00 00 00 00       	mov    $0x0,%eax
  402a75:	e8 b6 e9 ff ff       	call   401430 <__fprintf_chk@plt>
  402a7a:	bf 01 00 00 00       	mov    $0x1,%edi
  402a7f:	e8 8c e9 ff ff       	call   401410 <exit@plt>

0000000000402a84 <rio_writen>:
  402a84:	41 55                	push   %r13
  402a86:	41 54                	push   %r12
  402a88:	55                   	push   %rbp
  402a89:	53                   	push   %rbx
  402a8a:	48 83 ec 08          	sub    $0x8,%rsp
  402a8e:	41 89 fc             	mov    %edi,%r12d
  402a91:	48 89 f5             	mov    %rsi,%rbp
  402a94:	49 89 d5             	mov    %rdx,%r13
  402a97:	48 89 d3             	mov    %rdx,%rbx
  402a9a:	eb 06                	jmp    402aa2 <rio_writen+0x1e>
  402a9c:	48 29 c3             	sub    %rax,%rbx
  402a9f:	48 01 c5             	add    %rax,%rbp
  402aa2:	48 85 db             	test   %rbx,%rbx
  402aa5:	74 24                	je     402acb <rio_writen+0x47>
  402aa7:	48 89 da             	mov    %rbx,%rdx
  402aaa:	48 89 ee             	mov    %rbp,%rsi
  402aad:	44 89 e7             	mov    %r12d,%edi
  402ab0:	e8 0b e8 ff ff       	call   4012c0 <write@plt>
  402ab5:	48 85 c0             	test   %rax,%rax
  402ab8:	7f e2                	jg     402a9c <rio_writen+0x18>
  402aba:	e8 a1 e7 ff ff       	call   401260 <__errno_location@plt>
  402abf:	83 38 04             	cmpl   $0x4,(%rax)
  402ac2:	75 15                	jne    402ad9 <rio_writen+0x55>
  402ac4:	b8 00 00 00 00       	mov    $0x0,%eax
  402ac9:	eb d1                	jmp    402a9c <rio_writen+0x18>
  402acb:	4c 89 e8             	mov    %r13,%rax
  402ace:	48 83 c4 08          	add    $0x8,%rsp
  402ad2:	5b                   	pop    %rbx
  402ad3:	5d                   	pop    %rbp
  402ad4:	41 5c                	pop    %r12
  402ad6:	41 5d                	pop    %r13
  402ad8:	c3                   	ret    
  402ad9:	48 c7 c0 ff ff ff ff 	mov    $0xffffffffffffffff,%rax
  402ae0:	eb ec                	jmp    402ace <rio_writen+0x4a>

0000000000402ae2 <rio_read>:
  402ae2:	41 55                	push   %r13
  402ae4:	41 54                	push   %r12
  402ae6:	55                   	push   %rbp
  402ae7:	53                   	push   %rbx
  402ae8:	48 83 ec 08          	sub    $0x8,%rsp
  402aec:	48 89 fb             	mov    %rdi,%rbx
  402aef:	49 89 f5             	mov    %rsi,%r13
  402af2:	49 89 d4             	mov    %rdx,%r12
  402af5:	eb 17                	jmp    402b0e <rio_read+0x2c>
  402af7:	e8 64 e7 ff ff       	call   401260 <__errno_location@plt>
  402afc:	83 38 04             	cmpl   $0x4,(%rax)
  402aff:	74 0d                	je     402b0e <rio_read+0x2c>
  402b01:	48 c7 c0 ff ff ff ff 	mov    $0xffffffffffffffff,%rax
  402b08:	eb 54                	jmp    402b5e <rio_read+0x7c>
  402b0a:	48 89 6b 08          	mov    %rbp,0x8(%rbx)
  402b0e:	8b 6b 04             	mov    0x4(%rbx),%ebp
  402b11:	85 ed                	test   %ebp,%ebp
  402b13:	7f 23                	jg     402b38 <rio_read+0x56>
  402b15:	48 8d 6b 10          	lea    0x10(%rbx),%rbp
  402b19:	8b 3b                	mov    (%rbx),%edi
  402b1b:	ba 00 20 00 00       	mov    $0x2000,%edx
  402b20:	48 89 ee             	mov    %rbp,%rsi
  402b23:	e8 e8 e7 ff ff       	call   401310 <read@plt>
  402b28:	89 43 04             	mov    %eax,0x4(%rbx)
  402b2b:	85 c0                	test   %eax,%eax
  402b2d:	78 c8                	js     402af7 <rio_read+0x15>
  402b2f:	75 d9                	jne    402b0a <rio_read+0x28>
  402b31:	b8 00 00 00 00       	mov    $0x0,%eax
  402b36:	eb 26                	jmp    402b5e <rio_read+0x7c>
  402b38:	89 e8                	mov    %ebp,%eax
  402b3a:	4c 39 e0             	cmp    %r12,%rax
  402b3d:	72 03                	jb     402b42 <rio_read+0x60>
  402b3f:	44 89 e5             	mov    %r12d,%ebp
  402b42:	4c 63 e5             	movslq %ebp,%r12
  402b45:	48 8b 73 08          	mov    0x8(%rbx),%rsi
  402b49:	4c 89 e2             	mov    %r12,%rdx
  402b4c:	4c 89 ef             	mov    %r13,%rdi
  402b4f:	e8 1c e8 ff ff       	call   401370 <memcpy@plt>
  402b54:	4c 01 63 08          	add    %r12,0x8(%rbx)
  402b58:	29 6b 04             	sub    %ebp,0x4(%rbx)
  402b5b:	4c 89 e0             	mov    %r12,%rax
  402b5e:	48 83 c4 08          	add    $0x8,%rsp
  402b62:	5b                   	pop    %rbx
  402b63:	5d                   	pop    %rbp
  402b64:	41 5c                	pop    %r12
  402b66:	41 5d                	pop    %r13
  402b68:	c3                   	ret    

0000000000402b69 <rio_readlineb>:
  402b69:	41 55                	push   %r13
  402b6b:	41 54                	push   %r12
  402b6d:	55                   	push   %rbp
  402b6e:	53                   	push   %rbx
  402b6f:	48 83 ec 18          	sub    $0x18,%rsp
  402b73:	49 89 fd             	mov    %rdi,%r13
  402b76:	48 89 f5             	mov    %rsi,%rbp
  402b79:	49 89 d4             	mov    %rdx,%r12
  402b7c:	64 48 8b 04 25 28 00 	mov    %fs:0x28,%rax
  402b83:	00 00 
  402b85:	48 89 44 24 08       	mov    %rax,0x8(%rsp)
  402b8a:	31 c0                	xor    %eax,%eax
  402b8c:	bb 01 00 00 00       	mov    $0x1,%ebx
  402b91:	eb 18                	jmp    402bab <rio_readlineb+0x42>
  402b93:	85 c0                	test   %eax,%eax
  402b95:	75 65                	jne    402bfc <rio_readlineb+0x93>
  402b97:	48 83 fb 01          	cmp    $0x1,%rbx
  402b9b:	75 3d                	jne    402bda <rio_readlineb+0x71>
  402b9d:	b8 00 00 00 00       	mov    $0x0,%eax
  402ba2:	eb 3d                	jmp    402be1 <rio_readlineb+0x78>
  402ba4:	48 83 c3 01          	add    $0x1,%rbx
  402ba8:	48 89 d5             	mov    %rdx,%rbp
  402bab:	4c 39 e3             	cmp    %r12,%rbx
  402bae:	73 2a                	jae    402bda <rio_readlineb+0x71>
  402bb0:	48 8d 74 24 07       	lea    0x7(%rsp),%rsi
  402bb5:	ba 01 00 00 00       	mov    $0x1,%edx
  402bba:	4c 89 ef             	mov    %r13,%rdi
  402bbd:	e8 20 ff ff ff       	call   402ae2 <rio_read>
  402bc2:	83 f8 01             	cmp    $0x1,%eax
  402bc5:	75 cc                	jne    402b93 <rio_readlineb+0x2a>
  402bc7:	48 8d 55 01          	lea    0x1(%rbp),%rdx
  402bcb:	0f b6 44 24 07       	movzbl 0x7(%rsp),%eax
  402bd0:	88 45 00             	mov    %al,0x0(%rbp)
  402bd3:	3c 0a                	cmp    $0xa,%al
  402bd5:	75 cd                	jne    402ba4 <rio_readlineb+0x3b>
  402bd7:	48 89 d5             	mov    %rdx,%rbp
  402bda:	c6 45 00 00          	movb   $0x0,0x0(%rbp)
  402bde:	48 89 d8             	mov    %rbx,%rax
  402be1:	48 8b 4c 24 08       	mov    0x8(%rsp),%rcx
  402be6:	64 48 33 0c 25 28 00 	xor    %fs:0x28,%rcx
  402bed:	00 00 
  402bef:	75 14                	jne    402c05 <rio_readlineb+0x9c>
  402bf1:	48 83 c4 18          	add    $0x18,%rsp
  402bf5:	5b                   	pop    %rbx
  402bf6:	5d                   	pop    %rbp
  402bf7:	41 5c                	pop    %r12
  402bf9:	41 5d                	pop    %r13
  402bfb:	c3                   	ret    
  402bfc:	48 c7 c0 ff ff ff ff 	mov    $0xffffffffffffffff,%rax
  402c03:	eb dc                	jmp    402be1 <rio_readlineb+0x78>
  402c05:	e8 10 fc ff ff       	call   40281a <__stack_chk_fail>

0000000000402c0a <urlencode>:
  402c0a:	41 54                	push   %r12
  402c0c:	55                   	push   %rbp
  402c0d:	53                   	push   %rbx
  402c0e:	48 83 ec 10          	sub    $0x10,%rsp
  402c12:	48 89 fb             	mov    %rdi,%rbx
  402c15:	48 89 f5             	mov    %rsi,%rbp
  402c18:	64 48 8b 04 25 28 00 	mov    %fs:0x28,%rax
  402c1f:	00 00 
  402c21:	48 89 44 24 08       	mov    %rax,0x8(%rsp)
  402c26:	31 c0                	xor    %eax,%eax
  402c28:	48 c7 c1 ff ff ff ff 	mov    $0xffffffffffffffff,%rcx
  402c2f:	f2 ae                	repnz scas %es:(%rdi),%al
  402c31:	48 f7 d1             	not    %rcx
  402c34:	8d 41 ff             	lea    -0x1(%rcx),%eax
  402c37:	eb 0f                	jmp    402c48 <urlencode+0x3e>
  402c39:	44 88 45 00          	mov    %r8b,0x0(%rbp)
  402c3d:	48 8d 6d 01          	lea    0x1(%rbp),%rbp
  402c41:	48 83 c3 01          	add    $0x1,%rbx
  402c45:	44 89 e0             	mov    %r12d,%eax
  402c48:	44 8d 60 ff          	lea    -0x1(%rax),%r12d
  402c4c:	85 c0                	test   %eax,%eax
  402c4e:	0f 84 a8 00 00 00    	je     402cfc <urlencode+0xf2>
  402c54:	44 0f b6 03          	movzbl (%rbx),%r8d
  402c58:	41 80 f8 2a          	cmp    $0x2a,%r8b
  402c5c:	0f 94 c2             	sete   %dl
  402c5f:	41 80 f8 2d          	cmp    $0x2d,%r8b
  402c63:	0f 94 c0             	sete   %al
  402c66:	08 c2                	or     %al,%dl
  402c68:	75 cf                	jne    402c39 <urlencode+0x2f>
  402c6a:	41 80 f8 2e          	cmp    $0x2e,%r8b
  402c6e:	74 c9                	je     402c39 <urlencode+0x2f>
  402c70:	41 80 f8 5f          	cmp    $0x5f,%r8b
  402c74:	74 c3                	je     402c39 <urlencode+0x2f>
  402c76:	41 8d 40 d0          	lea    -0x30(%r8),%eax
  402c7a:	3c 09                	cmp    $0x9,%al
  402c7c:	76 bb                	jbe    402c39 <urlencode+0x2f>
  402c7e:	41 8d 40 bf          	lea    -0x41(%r8),%eax
  402c82:	3c 19                	cmp    $0x19,%al
  402c84:	76 b3                	jbe    402c39 <urlencode+0x2f>
  402c86:	41 8d 40 9f          	lea    -0x61(%r8),%eax
  402c8a:	3c 19                	cmp    $0x19,%al
  402c8c:	76 ab                	jbe    402c39 <urlencode+0x2f>
  402c8e:	41 80 f8 20          	cmp    $0x20,%r8b
  402c92:	74 56                	je     402cea <urlencode+0xe0>
  402c94:	41 8d 40 e0          	lea    -0x20(%r8),%eax
  402c98:	3c 5f                	cmp    $0x5f,%al
  402c9a:	0f 96 c2             	setbe  %dl
  402c9d:	41 80 f8 09          	cmp    $0x9,%r8b
  402ca1:	0f 94 c0             	sete   %al
  402ca4:	08 c2                	or     %al,%dl
  402ca6:	74 4f                	je     402cf7 <urlencode+0xed>
  402ca8:	48 89 e7             	mov    %rsp,%rdi
  402cab:	45 0f b6 c0          	movzbl %r8b,%r8d
  402caf:	48 8d 0d 7f 1b 00 00 	lea    0x1b7f(%rip),%rcx        # 404835 <trans_char+0xc5>
  402cb6:	ba 08 00 00 00       	mov    $0x8,%edx
  402cbb:	be 01 00 00 00       	mov    $0x1,%esi
  402cc0:	b8 00 00 00 00       	mov    $0x0,%eax
  402cc5:	e8 86 e7 ff ff       	call   401450 <__sprintf_chk@plt>
  402cca:	0f b6 04 24          	movzbl (%rsp),%eax
  402cce:	88 45 00             	mov    %al,0x0(%rbp)
  402cd1:	0f b6 44 24 01       	movzbl 0x1(%rsp),%eax
  402cd6:	88 45 01             	mov    %al,0x1(%rbp)
  402cd9:	0f b6 44 24 02       	movzbl 0x2(%rsp),%eax
  402cde:	88 45 02             	mov    %al,0x2(%rbp)
  402ce1:	48 8d 6d 03          	lea    0x3(%rbp),%rbp
  402ce5:	e9 57 ff ff ff       	jmp    402c41 <urlencode+0x37>
  402cea:	c6 45 00 2b          	movb   $0x2b,0x0(%rbp)
  402cee:	48 8d 6d 01          	lea    0x1(%rbp),%rbp
  402cf2:	e9 4a ff ff ff       	jmp    402c41 <urlencode+0x37>
  402cf7:	b8 ff ff ff ff       	mov    $0xffffffff,%eax
  402cfc:	48 8b 74 24 08       	mov    0x8(%rsp),%rsi
  402d01:	64 48 33 34 25 28 00 	xor    %fs:0x28,%rsi
  402d08:	00 00 
  402d0a:	75 09                	jne    402d15 <urlencode+0x10b>
  402d0c:	48 83 c4 10          	add    $0x10,%rsp
  402d10:	5b                   	pop    %rbx
  402d11:	5d                   	pop    %rbp
  402d12:	41 5c                	pop    %r12
  402d14:	c3                   	ret    
  402d15:	e8 00 fb ff ff       	call   40281a <__stack_chk_fail>

0000000000402d1a <submitr>:
  402d1a:	f3 0f 1e fa          	endbr64 
  402d1e:	41 57                	push   %r15
  402d20:	41 56                	push   %r14
  402d22:	41 55                	push   %r13
  402d24:	41 54                	push   %r12
  402d26:	55                   	push   %rbp
  402d27:	53                   	push   %rbx
  402d28:	4c 8d 9c 24 00 60 ff 	lea    -0xa000(%rsp),%r11
  402d2f:	ff 
  402d30:	48 81 ec 00 10 00 00 	sub    $0x1000,%rsp
  402d37:	48 83 0c 24 00       	orq    $0x0,(%rsp)
  402d3c:	4c 39 dc             	cmp    %r11,%rsp
  402d3f:	75 ef                	jne    402d30 <submitr+0x16>
  402d41:	48 83 ec 68          	sub    $0x68,%rsp
  402d45:	49 89 fc             	mov    %rdi,%r12
  402d48:	89 74 24 1c          	mov    %esi,0x1c(%rsp)
  402d4c:	48 89 54 24 08       	mov    %rdx,0x8(%rsp)
  402d51:	49 89 cd             	mov    %rcx,%r13
  402d54:	4c 89 44 24 10       	mov    %r8,0x10(%rsp)
  402d59:	4d 89 ce             	mov    %r9,%r14
  402d5c:	48 8b ac 24 a0 a0 00 	mov    0xa0a0(%rsp),%rbp
  402d63:	00 
  402d64:	64 48 8b 04 25 28 00 	mov    %fs:0x28,%rax
  402d6b:	00 00 
  402d6d:	48 89 84 24 58 a0 00 	mov    %rax,0xa058(%rsp)
  402d74:	00 
  402d75:	31 c0                	xor    %eax,%eax
  402d77:	c7 44 24 2c 00 00 00 	movl   $0x0,0x2c(%rsp)
  402d7e:	00 
  402d7f:	ba 00 00 00 00       	mov    $0x0,%edx
  402d84:	be 01 00 00 00       	mov    $0x1,%esi
  402d89:	bf 02 00 00 00       	mov    $0x2,%edi
  402d8e:	e8 cd e6 ff ff       	call   401460 <socket@plt>
  402d93:	85 c0                	test   %eax,%eax
  402d95:	0f 88 a5 02 00 00    	js     403040 <submitr+0x326>
  402d9b:	89 c3                	mov    %eax,%ebx
  402d9d:	4c 89 e7             	mov    %r12,%rdi
  402da0:	e8 9b e5 ff ff       	call   401340 <gethostbyname@plt>
  402da5:	48 85 c0             	test   %rax,%rax
  402da8:	0f 84 de 02 00 00    	je     40308c <submitr+0x372>
  402dae:	4c 8d 7c 24 30       	lea    0x30(%rsp),%r15
  402db3:	48 c7 44 24 30 00 00 	movq   $0x0,0x30(%rsp)
  402dba:	00 00 
  402dbc:	48 c7 44 24 38 00 00 	movq   $0x0,0x38(%rsp)
  402dc3:	00 00 
  402dc5:	66 c7 44 24 30 02 00 	movw   $0x2,0x30(%rsp)
  402dcc:	48 63 50 14          	movslq 0x14(%rax),%rdx
  402dd0:	48 8b 40 18          	mov    0x18(%rax),%rax
  402dd4:	48 8b 30             	mov    (%rax),%rsi
  402dd7:	48 8d 7c 24 34       	lea    0x34(%rsp),%rdi
  402ddc:	b9 0c 00 00 00       	mov    $0xc,%ecx
  402de1:	e8 6a e5 ff ff       	call   401350 <__memmove_chk@plt>
  402de6:	0f b7 74 24 1c       	movzwl 0x1c(%rsp),%esi
  402deb:	66 c1 c6 08          	rol    $0x8,%si
  402def:	66 89 74 24 32       	mov    %si,0x32(%rsp)
  402df4:	ba 10 00 00 00       	mov    $0x10,%edx
  402df9:	4c 89 fe             	mov    %r15,%rsi
  402dfc:	89 df                	mov    %ebx,%edi
  402dfe:	e8 1d e6 ff ff       	call   401420 <connect@plt>
  402e03:	85 c0                	test   %eax,%eax
  402e05:	0f 88 f7 02 00 00    	js     403102 <submitr+0x3e8>
  402e0b:	48 c7 c6 ff ff ff ff 	mov    $0xffffffffffffffff,%rsi
  402e12:	b8 00 00 00 00       	mov    $0x0,%eax
  402e17:	48 89 f1             	mov    %rsi,%rcx
  402e1a:	4c 89 f7             	mov    %r14,%rdi
  402e1d:	f2 ae                	repnz scas %es:(%rdi),%al
  402e1f:	48 89 ca             	mov    %rcx,%rdx
  402e22:	48 f7 d2             	not    %rdx
  402e25:	48 89 f1             	mov    %rsi,%rcx
  402e28:	48 8b 7c 24 08       	mov    0x8(%rsp),%rdi
  402e2d:	f2 ae                	repnz scas %es:(%rdi),%al
  402e2f:	48 f7 d1             	not    %rcx
  402e32:	49 89 c8             	mov    %rcx,%r8
  402e35:	48 89 f1             	mov    %rsi,%rcx
  402e38:	4c 89 ef             	mov    %r13,%rdi
  402e3b:	f2 ae                	repnz scas %es:(%rdi),%al
  402e3d:	48 f7 d1             	not    %rcx
  402e40:	4d 8d 44 08 fe       	lea    -0x2(%r8,%rcx,1),%r8
  402e45:	48 89 f1             	mov    %rsi,%rcx
  402e48:	48 8b 7c 24 10       	mov    0x10(%rsp),%rdi
  402e4d:	f2 ae                	repnz scas %es:(%rdi),%al
  402e4f:	48 89 c8             	mov    %rcx,%rax
  402e52:	48 f7 d0             	not    %rax
  402e55:	49 8d 4c 00 ff       	lea    -0x1(%r8,%rax,1),%rcx
  402e5a:	48 8d 44 52 fd       	lea    -0x3(%rdx,%rdx,2),%rax
  402e5f:	48 8d 84 01 80 00 00 	lea    0x80(%rcx,%rax,1),%rax
  402e66:	00 
  402e67:	48 3d 00 20 00 00    	cmp    $0x2000,%rax
  402e6d:	0f 87 f7 02 00 00    	ja     40316a <submitr+0x450>
  402e73:	48 8d b4 24 50 40 00 	lea    0x4050(%rsp),%rsi
  402e7a:	00 
  402e7b:	b9 00 04 00 00       	mov    $0x400,%ecx
  402e80:	b8 00 00 00 00       	mov    $0x0,%eax
  402e85:	48 89 f7             	mov    %rsi,%rdi
  402e88:	f3 48 ab             	rep stos %rax,%es:(%rdi)
  402e8b:	4c 89 f7             	mov    %r14,%rdi
  402e8e:	e8 77 fd ff ff       	call   402c0a <urlencode>
  402e93:	85 c0                	test   %eax,%eax
  402e95:	0f 88 42 03 00 00    	js     4031dd <submitr+0x4c3>
  402e9b:	4c 8d bc 24 50 20 00 	lea    0x2050(%rsp),%r15
  402ea2:	00 
  402ea3:	48 83 ec 08          	sub    $0x8,%rsp
  402ea7:	41 54                	push   %r12
  402ea9:	48 8d 84 24 60 40 00 	lea    0x4060(%rsp),%rax
  402eb0:	00 
  402eb1:	50                   	push   %rax
  402eb2:	41 55                	push   %r13
  402eb4:	4c 8b 4c 24 30       	mov    0x30(%rsp),%r9
  402eb9:	4c 8b 44 24 28       	mov    0x28(%rsp),%r8
  402ebe:	48 8d 0d e3 18 00 00 	lea    0x18e3(%rip),%rcx        # 4047a8 <trans_char+0x38>
  402ec5:	ba 00 20 00 00       	mov    $0x2000,%edx
  402eca:	be 01 00 00 00       	mov    $0x1,%esi
  402ecf:	4c 89 ff             	mov    %r15,%rdi
  402ed2:	b8 00 00 00 00       	mov    $0x0,%eax
  402ed7:	e8 74 e5 ff ff       	call   401450 <__sprintf_chk@plt>
  402edc:	48 c7 c1 ff ff ff ff 	mov    $0xffffffffffffffff,%rcx
  402ee3:	b8 00 00 00 00       	mov    $0x0,%eax
  402ee8:	4c 89 ff             	mov    %r15,%rdi
  402eeb:	f2 ae                	repnz scas %es:(%rdi),%al
  402eed:	48 f7 d1             	not    %rcx
  402ef0:	48 8d 51 ff          	lea    -0x1(%rcx),%rdx
  402ef4:	48 83 c4 20          	add    $0x20,%rsp
  402ef8:	4c 89 fe             	mov    %r15,%rsi
  402efb:	89 df                	mov    %ebx,%edi
  402efd:	e8 82 fb ff ff       	call   402a84 <rio_writen>
  402f02:	48 85 c0             	test   %rax,%rax
  402f05:	0f 88 5d 03 00 00    	js     403268 <submitr+0x54e>
  402f0b:	4c 8d 64 24 40       	lea    0x40(%rsp),%r12
  402f10:	89 de                	mov    %ebx,%esi
  402f12:	4c 89 e7             	mov    %r12,%rdi
  402f15:	e8 22 fb ff ff       	call   402a3c <rio_readinitb>
  402f1a:	48 8d b4 24 50 20 00 	lea    0x2050(%rsp),%rsi
  402f21:	00 
  402f22:	ba 00 20 00 00       	mov    $0x2000,%edx
  402f27:	4c 89 e7             	mov    %r12,%rdi
  402f2a:	e8 3a fc ff ff       	call   402b69 <rio_readlineb>
  402f2f:	48 85 c0             	test   %rax,%rax
  402f32:	0f 8e 9c 03 00 00    	jle    4032d4 <submitr+0x5ba>
  402f38:	48 8d 4c 24 2c       	lea    0x2c(%rsp),%rcx
  402f3d:	48 8d 94 24 50 60 00 	lea    0x6050(%rsp),%rdx
  402f44:	00 
  402f45:	48 8d bc 24 50 20 00 	lea    0x2050(%rsp),%rdi
  402f4c:	00 
  402f4d:	4c 8d 84 24 50 80 00 	lea    0x8050(%rsp),%r8
  402f54:	00 
  402f55:	48 8d 35 e0 18 00 00 	lea    0x18e0(%rip),%rsi        # 40483c <trans_char+0xcc>
  402f5c:	b8 00 00 00 00       	mov    $0x0,%eax
  402f61:	e8 3a e4 ff ff       	call   4013a0 <__isoc99_sscanf@plt>
  402f66:	48 8d b4 24 50 20 00 	lea    0x2050(%rsp),%rsi
  402f6d:	00 
  402f6e:	b9 03 00 00 00       	mov    $0x3,%ecx
  402f73:	48 8d 3d d9 18 00 00 	lea    0x18d9(%rip),%rdi        # 404853 <trans_char+0xe3>
  402f7a:	f3 a6                	repz cmpsb %es:(%rdi),%ds:(%rsi)
  402f7c:	0f 97 c0             	seta   %al
  402f7f:	1c 00                	sbb    $0x0,%al
  402f81:	84 c0                	test   %al,%al
  402f83:	0f 84 cb 03 00 00    	je     403354 <submitr+0x63a>
  402f89:	48 8d b4 24 50 20 00 	lea    0x2050(%rsp),%rsi
  402f90:	00 
  402f91:	48 8d 7c 24 40       	lea    0x40(%rsp),%rdi
  402f96:	ba 00 20 00 00       	mov    $0x2000,%edx
  402f9b:	e8 c9 fb ff ff       	call   402b69 <rio_readlineb>
  402fa0:	48 85 c0             	test   %rax,%rax
  402fa3:	7f c1                	jg     402f66 <submitr+0x24c>
  402fa5:	48 b8 45 72 72 6f 72 	movabs $0x43203a726f727245,%rax
  402fac:	3a 20 43 
  402faf:	48 ba 6c 69 65 6e 74 	movabs $0x6e7520746e65696c,%rdx
  402fb6:	20 75 6e 
  402fb9:	48 89 45 00          	mov    %rax,0x0(%rbp)
  402fbd:	48 89 55 08          	mov    %rdx,0x8(%rbp)
  402fc1:	48 b8 61 62 6c 65 20 	movabs $0x206f7420656c6261,%rax
  402fc8:	74 6f 20 
  402fcb:	48 ba 72 65 61 64 20 	movabs $0x6165682064616572,%rdx
  402fd2:	68 65 61 
  402fd5:	48 89 45 10          	mov    %rax,0x10(%rbp)
  402fd9:	48 89 55 18          	mov    %rdx,0x18(%rbp)
  402fdd:	48 b8 64 65 72 73 20 	movabs $0x6f72662073726564,%rax
  402fe4:	66 72 6f 
  402fe7:	48 ba 6d 20 41 75 74 	movabs $0x616c6f747541206d,%rdx
  402fee:	6f 6c 61 
  402ff1:	48 89 45 20          	mov    %rax,0x20(%rbp)
  402ff5:	48 89 55 28          	mov    %rdx,0x28(%rbp)
  402ff9:	48 b8 62 20 73 65 72 	movabs $0x7265767265732062,%rax
  403000:	76 65 72 
  403003:	48 89 45 30          	mov    %rax,0x30(%rbp)
  403007:	c6 45 38 00          	movb   $0x0,0x38(%rbp)
  40300b:	89 df                	mov    %ebx,%edi
  40300d:	e8 ee e2 ff ff       	call   401300 <close@plt>
  403012:	b8 ff ff ff ff       	mov    $0xffffffff,%eax
  403017:	48 8b 9c 24 58 a0 00 	mov    0xa058(%rsp),%rbx
  40301e:	00 
  40301f:	64 48 33 1c 25 28 00 	xor    %fs:0x28,%rbx
  403026:	00 00 
  403028:	0f 85 96 04 00 00    	jne    4034c4 <submitr+0x7aa>
  40302e:	48 81 c4 68 a0 00 00 	add    $0xa068,%rsp
  403035:	5b                   	pop    %rbx
  403036:	5d                   	pop    %rbp
  403037:	41 5c                	pop    %r12
  403039:	41 5d                	pop    %r13
  40303b:	41 5e                	pop    %r14
  40303d:	41 5f                	pop    %r15
  40303f:	c3                   	ret    
  403040:	48 b8 45 72 72 6f 72 	movabs $0x43203a726f727245,%rax
  403047:	3a 20 43 
  40304a:	48 ba 6c 69 65 6e 74 	movabs $0x6e7520746e65696c,%rdx
  403051:	20 75 6e 
  403054:	48 89 45 00          	mov    %rax,0x0(%rbp)
  403058:	48 89 55 08          	mov    %rdx,0x8(%rbp)
  40305c:	48 b8 61 62 6c 65 20 	movabs $0x206f7420656c6261,%rax
  403063:	74 6f 20 
  403066:	48 ba 63 72 65 61 74 	movabs $0x7320657461657263,%rdx
  40306d:	65 20 73 
  403070:	48 89 45 10          	mov    %rax,0x10(%rbp)
  403074:	48 89 55 18          	mov    %rdx,0x18(%rbp)
  403078:	c7 45 20 6f 63 6b 65 	movl   $0x656b636f,0x20(%rbp)
  40307f:	66 c7 45 24 74 00    	movw   $0x74,0x24(%rbp)
  403085:	b8 ff ff ff ff       	mov    $0xffffffff,%eax
  40308a:	eb 8b                	jmp    403017 <submitr+0x2fd>
  40308c:	48 b8 45 72 72 6f 72 	movabs $0x44203a726f727245,%rax
  403093:	3a 20 44 
  403096:	48 ba 4e 53 20 69 73 	movabs $0x6e7520736920534e,%rdx
  40309d:	20 75 6e 
  4030a0:	48 89 45 00          	mov    %rax,0x0(%rbp)
  4030a4:	48 89 55 08          	mov    %rdx,0x8(%rbp)
  4030a8:	48 b8 61 62 6c 65 20 	movabs $0x206f7420656c6261,%rax
  4030af:	74 6f 20 
  4030b2:	48 ba 72 65 73 6f 6c 	movabs $0x2065766c6f736572,%rdx
  4030b9:	76 65 20 
  4030bc:	48 89 45 10          	mov    %rax,0x10(%rbp)
  4030c0:	48 89 55 18          	mov    %rdx,0x18(%rbp)
  4030c4:	48 b8 41 75 74 6f 6c 	movabs $0x2062616c6f747541,%rax
  4030cb:	61 62 20 
  4030ce:	48 ba 73 65 72 76 65 	movabs $0x6120726576726573,%rdx
  4030d5:	72 20 61 
  4030d8:	48 89 45 20          	mov    %rax,0x20(%rbp)
  4030dc:	48 89 55 28          	mov    %rdx,0x28(%rbp)
  4030e0:	c7 45 30 64 64 72 65 	movl   $0x65726464,0x30(%rbp)
  4030e7:	66 c7 45 34 73 73    	movw   $0x7373,0x34(%rbp)
  4030ed:	c6 45 36 00          	movb   $0x0,0x36(%rbp)
  4030f1:	89 df                	mov    %ebx,%edi
  4030f3:	e8 08 e2 ff ff       	call   401300 <close@plt>
  4030f8:	b8 ff ff ff ff       	mov    $0xffffffff,%eax
  4030fd:	e9 15 ff ff ff       	jmp    403017 <submitr+0x2fd>
  403102:	48 b8 45 72 72 6f 72 	movabs $0x55203a726f727245,%rax
  403109:	3a 20 55 
  40310c:	48 ba 6e 61 62 6c 65 	movabs $0x6f7420656c62616e,%rdx
  403113:	20 74 6f 
  403116:	48 89 45 00          	mov    %rax,0x0(%rbp)
  40311a:	48 89 55 08          	mov    %rdx,0x8(%rbp)
  40311e:	48 b8 20 63 6f 6e 6e 	movabs $0x7463656e6e6f6320,%rax
  403125:	65 63 74 
  403128:	48 ba 20 74 6f 20 74 	movabs $0x20656874206f7420,%rdx
  40312f:	68 65 20 
  403132:	48 89 45 10          	mov    %rax,0x10(%rbp)
  403136:	48 89 55 18          	mov    %rdx,0x18(%rbp)
  40313a:	48 b8 41 75 74 6f 6c 	movabs $0x2062616c6f747541,%rax
  403141:	61 62 20 
  403144:	48 89 45 20          	mov    %rax,0x20(%rbp)
  403148:	c7 45 28 73 65 72 76 	movl   $0x76726573,0x28(%rbp)
  40314f:	66 c7 45 2c 65 72    	movw   $0x7265,0x2c(%rbp)
  403155:	c6 45 2e 00          	movb   $0x0,0x2e(%rbp)
  403159:	89 df                	mov    %ebx,%edi
  40315b:	e8 a0 e1 ff ff       	call   401300 <close@plt>
  403160:	b8 ff ff ff ff       	mov    $0xffffffff,%eax
  403165:	e9 ad fe ff ff       	jmp    403017 <submitr+0x2fd>
  40316a:	48 b8 45 72 72 6f 72 	movabs $0x52203a726f727245,%rax
  403171:	3a 20 52 
  403174:	48 ba 65 73 75 6c 74 	movabs $0x747320746c757365,%rdx
  40317b:	20 73 74 
  40317e:	48 89 45 00          	mov    %rax,0x0(%rbp)
  403182:	48 89 55 08          	mov    %rdx,0x8(%rbp)
  403186:	48 b8 72 69 6e 67 20 	movabs $0x6f6f7420676e6972,%rax
  40318d:	74 6f 6f 
  403190:	48 ba 20 6c 61 72 67 	movabs $0x202e656772616c20,%rdx
  403197:	65 2e 20 
  40319a:	48 89 45 10          	mov    %rax,0x10(%rbp)
  40319e:	48 89 55 18          	mov    %rdx,0x18(%rbp)
  4031a2:	48 b8 49 6e 63 72 65 	movabs $0x6573616572636e49,%rax
  4031a9:	61 73 65 
  4031ac:	48 ba 20 53 55 42 4d 	movabs $0x5254494d42555320,%rdx
  4031b3:	49 54 52 
  4031b6:	48 89 45 20          	mov    %rax,0x20(%rbp)
  4031ba:	48 89 55 28          	mov    %rdx,0x28(%rbp)
  4031be:	48 b8 5f 4d 41 58 42 	movabs $0x46554258414d5f,%rax
  4031c5:	55 46 00 
  4031c8:	48 89 45 30          	mov    %rax,0x30(%rbp)
  4031cc:	89 df                	mov    %ebx,%edi
  4031ce:	e8 2d e1 ff ff       	call   401300 <close@plt>
  4031d3:	b8 ff ff ff ff       	mov    $0xffffffff,%eax
  4031d8:	e9 3a fe ff ff       	jmp    403017 <submitr+0x2fd>
  4031dd:	48 b8 45 72 72 6f 72 	movabs $0x52203a726f727245,%rax
  4031e4:	3a 20 52 
  4031e7:	48 ba 65 73 75 6c 74 	movabs $0x747320746c757365,%rdx
  4031ee:	20 73 74 
  4031f1:	48 89 45 00          	mov    %rax,0x0(%rbp)
  4031f5:	48 89 55 08          	mov    %rdx,0x8(%rbp)
  4031f9:	48 b8 72 69 6e 67 20 	movabs $0x6e6f6320676e6972,%rax
  403200:	63 6f 6e 
  403203:	48 ba 74 61 69 6e 73 	movabs $0x6e6120736e696174,%rdx
  40320a:	20 61 6e 
  40320d:	48 89 45 10          	mov    %rax,0x10(%rbp)
  403211:	48 89 55 18          	mov    %rdx,0x18(%rbp)
  403215:	48 b8 20 69 6c 6c 65 	movabs $0x6c6167656c6c6920,%rax
  40321c:	67 61 6c 
  40321f:	48 ba 20 6f 72 20 75 	movabs $0x72706e7520726f20,%rdx
  403226:	6e 70 72 
  403229:	48 89 45 20          	mov    %rax,0x20(%rbp)
  40322d:	48 89 55 28          	mov    %rdx,0x28(%rbp)
  403231:	48 b8 69 6e 74 61 62 	movabs $0x20656c6261746e69,%rax
  403238:	6c 65 20 
  40323b:	48 ba 63 68 61 72 61 	movabs $0x6574636172616863,%rdx
  403242:	63 74 65 
  403245:	48 89 45 30          	mov    %rax,0x30(%rbp)
  403249:	48 89 55 38          	mov    %rdx,0x38(%rbp)
  40324d:	66 c7 45 40 72 2e    	movw   $0x2e72,0x40(%rbp)
  403253:	c6 45 42 00          	movb   $0x0,0x42(%rbp)
  403257:	89 df                	mov    %ebx,%edi
  403259:	e8 a2 e0 ff ff       	call   401300 <close@plt>
  40325e:	b8 ff ff ff ff       	mov    $0xffffffff,%eax
  403263:	e9 af fd ff ff       	jmp    403017 <submitr+0x2fd>
  403268:	48 b8 45 72 72 6f 72 	movabs $0x43203a726f727245,%rax
  40326f:	3a 20 43 
  403272:	48 ba 6c 69 65 6e 74 	movabs $0x6e7520746e65696c,%rdx
  403279:	20 75 6e 
  40327c:	48 89 45 00          	mov    %rax,0x0(%rbp)
  403280:	48 89 55 08          	mov    %rdx,0x8(%rbp)
  403284:	48 b8 61 62 6c 65 20 	movabs $0x206f7420656c6261,%rax
  40328b:	74 6f 20 
  40328e:	48 ba 77 72 69 74 65 	movabs $0x6f74206574697277,%rdx
  403295:	20 74 6f 
  403298:	48 89 45 10          	mov    %rax,0x10(%rbp)
  40329c:	48 89 55 18          	mov    %rdx,0x18(%rbp)
  4032a0:	48 b8 20 74 68 65 20 	movabs $0x7475412065687420,%rax
  4032a7:	41 75 74 
  4032aa:	48 ba 6f 6c 61 62 20 	movabs $0x7265732062616c6f,%rdx
  4032b1:	73 65 72 
  4032b4:	48 89 45 20          	mov    %rax,0x20(%rbp)
  4032b8:	48 89 55 28          	mov    %rdx,0x28(%rbp)
  4032bc:	c7 45 30 76 65 72 00 	movl   $0x726576,0x30(%rbp)
  4032c3:	89 df                	mov    %ebx,%edi
  4032c5:	e8 36 e0 ff ff       	call   401300 <close@plt>
  4032ca:	b8 ff ff ff ff       	mov    $0xffffffff,%eax
  4032cf:	e9 43 fd ff ff       	jmp    403017 <submitr+0x2fd>
  4032d4:	48 b8 45 72 72 6f 72 	movabs $0x43203a726f727245,%rax
  4032db:	3a 20 43 
  4032de:	48 ba 6c 69 65 6e 74 	movabs $0x6e7520746e65696c,%rdx
  4032e5:	20 75 6e 
  4032e8:	48 89 45 00          	mov    %rax,0x0(%rbp)
  4032ec:	48 89 55 08          	mov    %rdx,0x8(%rbp)
  4032f0:	48 b8 61 62 6c 65 20 	movabs $0x206f7420656c6261,%rax
  4032f7:	74 6f 20 
  4032fa:	48 ba 72 65 61 64 20 	movabs $0x7269662064616572,%rdx
  403301:	66 69 72 
  403304:	48 89 45 10          	mov    %rax,0x10(%rbp)
  403308:	48 89 55 18          	mov    %rdx,0x18(%rbp)
  40330c:	48 b8 73 74 20 68 65 	movabs $0x6564616568207473,%rax
  403313:	61 64 65 
  403316:	48 ba 72 20 66 72 6f 	movabs $0x41206d6f72662072,%rdx
  40331d:	6d 20 41 
  403320:	48 89 45 20          	mov    %rax,0x20(%rbp)
  403324:	48 89 55 28          	mov    %rdx,0x28(%rbp)
  403328:	48 b8 75 74 6f 6c 61 	movabs $0x732062616c6f7475,%rax
  40332f:	62 20 73 
  403332:	48 89 45 30          	mov    %rax,0x30(%rbp)
  403336:	c7 45 38 65 72 76 65 	movl   $0x65767265,0x38(%rbp)
  40333d:	66 c7 45 3c 72 00    	movw   $0x72,0x3c(%rbp)
  403343:	89 df                	mov    %ebx,%edi
  403345:	e8 b6 df ff ff       	call   401300 <close@plt>
  40334a:	b8 ff ff ff ff       	mov    $0xffffffff,%eax
  40334f:	e9 c3 fc ff ff       	jmp    403017 <submitr+0x2fd>
  403354:	48 8d b4 24 50 20 00 	lea    0x2050(%rsp),%rsi
  40335b:	00 
  40335c:	48 8d 7c 24 40       	lea    0x40(%rsp),%rdi
  403361:	ba 00 20 00 00       	mov    $0x2000,%edx
  403366:	e8 fe f7 ff ff       	call   402b69 <rio_readlineb>
  40336b:	48 85 c0             	test   %rax,%rax
  40336e:	0f 8e 96 00 00 00    	jle    40340a <submitr+0x6f0>
  403374:	44 8b 44 24 2c       	mov    0x2c(%rsp),%r8d
  403379:	41 81 f8 c8 00 00 00 	cmp    $0xc8,%r8d
  403380:	0f 85 05 01 00 00    	jne    40348b <submitr+0x771>
  403386:	48 8d b4 24 50 20 00 	lea    0x2050(%rsp),%rsi
  40338d:	00 
  40338e:	48 89 ef             	mov    %rbp,%rdi
  403391:	e8 0a df ff ff       	call   4012a0 <strcpy@plt>
  403396:	89 df                	mov    %ebx,%edi
  403398:	e8 63 df ff ff       	call   401300 <close@plt>
  40339d:	b9 04 00 00 00       	mov    $0x4,%ecx
  4033a2:	48 8d 3d a4 14 00 00 	lea    0x14a4(%rip),%rdi        # 40484d <trans_char+0xdd>
  4033a9:	48 89 ee             	mov    %rbp,%rsi
  4033ac:	f3 a6                	repz cmpsb %es:(%rdi),%ds:(%rsi)
  4033ae:	0f 97 c0             	seta   %al
  4033b1:	1c 00                	sbb    $0x0,%al
  4033b3:	0f be c0             	movsbl %al,%eax
  4033b6:	85 c0                	test   %eax,%eax
  4033b8:	0f 84 59 fc ff ff    	je     403017 <submitr+0x2fd>
  4033be:	b9 05 00 00 00       	mov    $0x5,%ecx
  4033c3:	48 8d 3d 87 14 00 00 	lea    0x1487(%rip),%rdi        # 404851 <trans_char+0xe1>
  4033ca:	48 89 ee             	mov    %rbp,%rsi
  4033cd:	f3 a6                	repz cmpsb %es:(%rdi),%ds:(%rsi)
  4033cf:	0f 97 c0             	seta   %al
  4033d2:	1c 00                	sbb    $0x0,%al
  4033d4:	0f be c0             	movsbl %al,%eax
  4033d7:	85 c0                	test   %eax,%eax
  4033d9:	0f 84 38 fc ff ff    	je     403017 <submitr+0x2fd>
  4033df:	b9 03 00 00 00       	mov    $0x3,%ecx
  4033e4:	48 8d 3d 6b 14 00 00 	lea    0x146b(%rip),%rdi        # 404856 <trans_char+0xe6>
  4033eb:	48 89 ee             	mov    %rbp,%rsi
  4033ee:	f3 a6                	repz cmpsb %es:(%rdi),%ds:(%rsi)
  4033f0:	0f 97 c0             	seta   %al
  4033f3:	1c 00                	sbb    $0x0,%al
  4033f5:	0f be c0             	movsbl %al,%eax
  4033f8:	85 c0                	test   %eax,%eax
  4033fa:	0f 84 17 fc ff ff    	je     403017 <submitr+0x2fd>
  403400:	b8 ff ff ff ff       	mov    $0xffffffff,%eax
  403405:	e9 0d fc ff ff       	jmp    403017 <submitr+0x2fd>
  40340a:	48 b8 45 72 72 6f 72 	movabs $0x43203a726f727245,%rax
  403411:	3a 20 43 
  403414:	48 ba 6c 69 65 6e 74 	movabs $0x6e7520746e65696c,%rdx
  40341b:	20 75 6e 
  40341e:	48 89 45 00          	mov    %rax,0x0(%rbp)
  403422:	48 89 55 08          	mov    %rdx,0x8(%rbp)
  403426:	48 b8 61 62 6c 65 20 	movabs $0x206f7420656c6261,%rax
  40342d:	74 6f 20 
  403430:	48 ba 72 65 61 64 20 	movabs $0x6174732064616572,%rdx
  403437:	73 74 61 
  40343a:	48 89 45 10          	mov    %rax,0x10(%rbp)
  40343e:	48 89 55 18          	mov    %rdx,0x18(%rbp)
  403442:	48 b8 74 75 73 20 6d 	movabs $0x7373656d20737574,%rax
  403449:	65 73 73 
  40344c:	48 ba 61 67 65 20 66 	movabs $0x6d6f726620656761,%rdx
  403453:	72 6f 6d 
  403456:	48 89 45 20          	mov    %rax,0x20(%rbp)
  40345a:	48 89 55 28          	mov    %rdx,0x28(%rbp)
  40345e:	48 b8 20 41 75 74 6f 	movabs $0x62616c6f74754120,%rax
  403465:	6c 61 62 
  403468:	48 ba 20 73 65 72 76 	movabs $0x72657672657320,%rdx
  40346f:	65 72 00 
  403472:	48 89 45 30          	mov    %rax,0x30(%rbp)
  403476:	48 89 55 38          	mov    %rdx,0x38(%rbp)
  40347a:	89 df                	mov    %ebx,%edi
  40347c:	e8 7f de ff ff       	call   401300 <close@plt>
  403481:	b8 ff ff ff ff       	mov    $0xffffffff,%eax
  403486:	e9 8c fb ff ff       	jmp    403017 <submitr+0x2fd>
  40348b:	4c 8d 8c 24 50 80 00 	lea    0x8050(%rsp),%r9
  403492:	00 
  403493:	48 8d 0d 6e 13 00 00 	lea    0x136e(%rip),%rcx        # 404808 <trans_char+0x98>
  40349a:	48 c7 c2 ff ff ff ff 	mov    $0xffffffffffffffff,%rdx
  4034a1:	be 01 00 00 00       	mov    $0x1,%esi
  4034a6:	48 89 ef             	mov    %rbp,%rdi
  4034a9:	b8 00 00 00 00       	mov    $0x0,%eax
  4034ae:	e8 9d df ff ff       	call   401450 <__sprintf_chk@plt>
  4034b3:	89 df                	mov    %ebx,%edi
  4034b5:	e8 46 de ff ff       	call   401300 <close@plt>
  4034ba:	b8 ff ff ff ff       	mov    $0xffffffff,%eax
  4034bf:	e9 53 fb ff ff       	jmp    403017 <submitr+0x2fd>
  4034c4:	e8 51 f3 ff ff       	call   40281a <__stack_chk_fail>

00000000004034c9 <init_timeout>:
  4034c9:	f3 0f 1e fa          	endbr64 
  4034cd:	85 ff                	test   %edi,%edi
  4034cf:	74 26                	je     4034f7 <init_timeout+0x2e>
  4034d1:	53                   	push   %rbx
  4034d2:	89 fb                	mov    %edi,%ebx
  4034d4:	78 1a                	js     4034f0 <init_timeout+0x27>
  4034d6:	48 8d 35 71 f5 ff ff 	lea    -0xa8f(%rip),%rsi        # 402a4e <sigalrm_handler>
  4034dd:	bf 0e 00 00 00       	mov    $0xe,%edi
  4034e2:	e8 49 de ff ff       	call   401330 <signal@plt>
  4034e7:	89 df                	mov    %ebx,%edi
  4034e9:	e8 02 de ff ff       	call   4012f0 <alarm@plt>
  4034ee:	5b                   	pop    %rbx
  4034ef:	c3                   	ret    
  4034f0:	bb 00 00 00 00       	mov    $0x0,%ebx
  4034f5:	eb df                	jmp    4034d6 <init_timeout+0xd>
  4034f7:	c3                   	ret    

00000000004034f8 <init_driver>:
  4034f8:	f3 0f 1e fa          	endbr64 
  4034fc:	41 54                	push   %r12
  4034fe:	55                   	push   %rbp
  4034ff:	53                   	push   %rbx
  403500:	48 83 ec 20          	sub    $0x20,%rsp
  403504:	48 89 fd             	mov    %rdi,%rbp
  403507:	64 48 8b 04 25 28 00 	mov    %fs:0x28,%rax
  40350e:	00 00 
  403510:	48 89 44 24 18       	mov    %rax,0x18(%rsp)
  403515:	31 c0                	xor    %eax,%eax
  403517:	be 01 00 00 00       	mov    $0x1,%esi
  40351c:	bf 0d 00 00 00       	mov    $0xd,%edi
  403521:	e8 0a de ff ff       	call   401330 <signal@plt>
  403526:	be 01 00 00 00       	mov    $0x1,%esi
  40352b:	bf 1d 00 00 00       	mov    $0x1d,%edi
  403530:	e8 fb dd ff ff       	call   401330 <signal@plt>
  403535:	be 01 00 00 00       	mov    $0x1,%esi
  40353a:	bf 1d 00 00 00       	mov    $0x1d,%edi
  40353f:	e8 ec dd ff ff       	call   401330 <signal@plt>
  403544:	ba 00 00 00 00       	mov    $0x0,%edx
  403549:	be 01 00 00 00       	mov    $0x1,%esi
  40354e:	bf 02 00 00 00       	mov    $0x2,%edi
  403553:	e8 08 df ff ff       	call   401460 <socket@plt>
  403558:	85 c0                	test   %eax,%eax
  40355a:	0f 88 9c 00 00 00    	js     4035fc <init_driver+0x104>
  403560:	89 c3                	mov    %eax,%ebx
  403562:	48 8d 3d f0 12 00 00 	lea    0x12f0(%rip),%rdi        # 404859 <trans_char+0xe9>
  403569:	e8 d2 dd ff ff       	call   401340 <gethostbyname@plt>
  40356e:	48 85 c0             	test   %rax,%rax
  403571:	0f 84 d1 00 00 00    	je     403648 <init_driver+0x150>
  403577:	49 89 e4             	mov    %rsp,%r12
  40357a:	48 c7 04 24 00 00 00 	movq   $0x0,(%rsp)
  403581:	00 
  403582:	48 c7 44 24 08 00 00 	movq   $0x0,0x8(%rsp)
  403589:	00 00 
  40358b:	66 c7 04 24 02 00    	movw   $0x2,(%rsp)
  403591:	48 63 50 14          	movslq 0x14(%rax),%rdx
  403595:	48 8b 40 18          	mov    0x18(%rax),%rax
  403599:	48 8b 30             	mov    (%rax),%rsi
  40359c:	48 8d 7c 24 04       	lea    0x4(%rsp),%rdi
  4035a1:	b9 0c 00 00 00       	mov    $0xc,%ecx
  4035a6:	e8 a5 dd ff ff       	call   401350 <__memmove_chk@plt>
  4035ab:	66 c7 44 24 02 30 39 	movw   $0x3930,0x2(%rsp)
  4035b2:	ba 10 00 00 00       	mov    $0x10,%edx
  4035b7:	4c 89 e6             	mov    %r12,%rsi
  4035ba:	89 df                	mov    %ebx,%edi
  4035bc:	e8 5f de ff ff       	call   401420 <connect@plt>
  4035c1:	85 c0                	test   %eax,%eax
  4035c3:	0f 88 e7 00 00 00    	js     4036b0 <init_driver+0x1b8>
  4035c9:	89 df                	mov    %ebx,%edi
  4035cb:	e8 30 dd ff ff       	call   401300 <close@plt>
  4035d0:	66 c7 45 00 4f 4b    	movw   $0x4b4f,0x0(%rbp)
  4035d6:	c6 45 02 00          	movb   $0x0,0x2(%rbp)
  4035da:	b8 00 00 00 00       	mov    $0x0,%eax
  4035df:	48 8b 4c 24 18       	mov    0x18(%rsp),%rcx
  4035e4:	64 48 33 0c 25 28 00 	xor    %fs:0x28,%rcx
  4035eb:	00 00 
  4035ed:	0f 85 10 01 00 00    	jne    403703 <init_driver+0x20b>
  4035f3:	48 83 c4 20          	add    $0x20,%rsp
  4035f7:	5b                   	pop    %rbx
  4035f8:	5d                   	pop    %rbp
  4035f9:	41 5c                	pop    %r12
  4035fb:	c3                   	ret    
  4035fc:	48 b8 45 72 72 6f 72 	movabs $0x43203a726f727245,%rax
  403603:	3a 20 43 
  403606:	48 ba 6c 69 65 6e 74 	movabs $0x6e7520746e65696c,%rdx
  40360d:	20 75 6e 
  403610:	48 89 45 00          	mov    %rax,0x0(%rbp)
  403614:	48 89 55 08          	mov    %rdx,0x8(%rbp)
  403618:	48 b8 61 62 6c 65 20 	movabs $0x206f7420656c6261,%rax
  40361f:	74 6f 20 
  403622:	48 ba 63 72 65 61 74 	movabs $0x7320657461657263,%rdx
  403629:	65 20 73 
  40362c:	48 89 45 10          	mov    %rax,0x10(%rbp)
  403630:	48 89 55 18          	mov    %rdx,0x18(%rbp)
  403634:	c7 45 20 6f 63 6b 65 	movl   $0x656b636f,0x20(%rbp)
  40363b:	66 c7 45 24 74 00    	movw   $0x74,0x24(%rbp)
  403641:	b8 ff ff ff ff       	mov    $0xffffffff,%eax
  403646:	eb 97                	jmp    4035df <init_driver+0xe7>
  403648:	48 b8 45 72 72 6f 72 	movabs $0x44203a726f727245,%rax
  40364f:	3a 20 44 
  403652:	48 ba 4e 53 20 69 73 	movabs $0x6e7520736920534e,%rdx
  403659:	20 75 6e 
  40365c:	48 89 45 00          	mov    %rax,0x0(%rbp)
  403660:	48 89 55 08          	mov    %rdx,0x8(%rbp)
  403664:	48 b8 61 62 6c 65 20 	movabs $0x206f7420656c6261,%rax
  40366b:	74 6f 20 
  40366e:	48 ba 72 65 73 6f 6c 	movabs $0x2065766c6f736572,%rdx
  403675:	76 65 20 
  403678:	48 89 45 10          	mov    %rax,0x10(%rbp)
  40367c:	48 89 55 18          	mov    %rdx,0x18(%rbp)
  403680:	48 b8 73 65 72 76 65 	movabs $0x6120726576726573,%rax
  403687:	72 20 61 
  40368a:	48 89 45 20          	mov    %rax,0x20(%rbp)
  40368e:	c7 45 28 64 64 72 65 	movl   $0x65726464,0x28(%rbp)
  403695:	66 c7 45 2c 73 73    	movw   $0x7373,0x2c(%rbp)
  40369b:	c6 45 2e 00          	movb   $0x0,0x2e(%rbp)
  40369f:	89 df                	mov    %ebx,%edi
  4036a1:	e8 5a dc ff ff       	call   401300 <close@plt>
  4036a6:	b8 ff ff ff ff       	mov    $0xffffffff,%eax
  4036ab:	e9 2f ff ff ff       	jmp    4035df <init_driver+0xe7>
  4036b0:	48 b8 45 72 72 6f 72 	movabs $0x55203a726f727245,%rax
  4036b7:	3a 20 55 
  4036ba:	48 ba 6e 61 62 6c 65 	movabs $0x6f7420656c62616e,%rdx
  4036c1:	20 74 6f 
  4036c4:	48 89 45 00          	mov    %rax,0x0(%rbp)
  4036c8:	48 89 55 08          	mov    %rdx,0x8(%rbp)
  4036cc:	48 b8 20 63 6f 6e 6e 	movabs $0x7463656e6e6f6320,%rax
  4036d3:	65 63 74 
  4036d6:	48 ba 20 74 6f 20 73 	movabs $0x76726573206f7420,%rdx
  4036dd:	65 72 76 
  4036e0:	48 89 45 10          	mov    %rax,0x10(%rbp)
  4036e4:	48 89 55 18          	mov    %rdx,0x18(%rbp)
  4036e8:	66 c7 45 20 65 72    	movw   $0x7265,0x20(%rbp)
  4036ee:	c6 45 22 00          	movb   $0x0,0x22(%rbp)
  4036f2:	89 df                	mov    %ebx,%edi
  4036f4:	e8 07 dc ff ff       	call   401300 <close@plt>
  4036f9:	b8 ff ff ff ff       	mov    $0xffffffff,%eax
  4036fe:	e9 dc fe ff ff       	jmp    4035df <init_driver+0xe7>
  403703:	e8 12 f1 ff ff       	call   40281a <__stack_chk_fail>

0000000000403708 <driver_post>:
  403708:	f3 0f 1e fa          	endbr64 
  40370c:	53                   	push   %rbx
  40370d:	4c 89 cb             	mov    %r9,%rbx
  403710:	45 85 c0             	test   %r8d,%r8d
  403713:	75 18                	jne    40372d <driver_post+0x25>
  403715:	48 85 ff             	test   %rdi,%rdi
  403718:	74 05                	je     40371f <driver_post+0x17>
  40371a:	80 3f 00             	cmpb   $0x0,(%rdi)
  40371d:	75 37                	jne    403756 <driver_post+0x4e>
  40371f:	66 c7 03 4f 4b       	movw   $0x4b4f,(%rbx)
  403724:	c6 43 02 00          	movb   $0x0,0x2(%rbx)
  403728:	44 89 c0             	mov    %r8d,%eax
  40372b:	5b                   	pop    %rbx
  40372c:	c3                   	ret    
  40372d:	48 89 ca             	mov    %rcx,%rdx
  403730:	48 8d 35 32 11 00 00 	lea    0x1132(%rip),%rsi        # 404869 <trans_char+0xf9>
  403737:	bf 01 00 00 00       	mov    $0x1,%edi
  40373c:	b8 00 00 00 00       	mov    $0x0,%eax
  403741:	e8 7a dc ff ff       	call   4013c0 <__printf_chk@plt>
  403746:	66 c7 03 4f 4b       	movw   $0x4b4f,(%rbx)
  40374b:	c6 43 02 00          	movb   $0x0,0x2(%rbx)
  40374f:	b8 00 00 00 00       	mov    $0x0,%eax
  403754:	eb d5                	jmp    40372b <driver_post+0x23>
  403756:	48 83 ec 08          	sub    $0x8,%rsp
  40375a:	41 51                	push   %r9
  40375c:	49 89 c9             	mov    %rcx,%r9
  40375f:	49 89 d0             	mov    %rdx,%r8
  403762:	48 89 f9             	mov    %rdi,%rcx
  403765:	48 89 f2             	mov    %rsi,%rdx
  403768:	be 39 30 00 00       	mov    $0x3039,%esi
  40376d:	48 8d 3d e5 10 00 00 	lea    0x10e5(%rip),%rdi        # 404859 <trans_char+0xe9>
  403774:	e8 a1 f5 ff ff       	call   402d1a <submitr>
  403779:	48 83 c4 10          	add    $0x10,%rsp
  40377d:	eb ac                	jmp    40372b <driver_post+0x23>

000000000040377f <check>:
  40377f:	f3 0f 1e fa          	endbr64 
  403783:	89 f8                	mov    %edi,%eax
  403785:	c1 e8 1c             	shr    $0x1c,%eax
  403788:	74 1d                	je     4037a7 <check+0x28>
  40378a:	b9 00 00 00 00       	mov    $0x0,%ecx
  40378f:	83 f9 1f             	cmp    $0x1f,%ecx
  403792:	7f 0d                	jg     4037a1 <check+0x22>
  403794:	89 f8                	mov    %edi,%eax
  403796:	d3 e8                	shr    %cl,%eax
  403798:	3c 0a                	cmp    $0xa,%al
  40379a:	74 11                	je     4037ad <check+0x2e>
  40379c:	83 c1 08             	add    $0x8,%ecx
  40379f:	eb ee                	jmp    40378f <check+0x10>
  4037a1:	b8 01 00 00 00       	mov    $0x1,%eax
  4037a6:	c3                   	ret    
  4037a7:	b8 00 00 00 00       	mov    $0x0,%eax
  4037ac:	c3                   	ret    
  4037ad:	b8 00 00 00 00       	mov    $0x0,%eax
  4037b2:	c3                   	ret    

00000000004037b3 <gencookie>:
  4037b3:	f3 0f 1e fa          	endbr64 
  4037b7:	53                   	push   %rbx
  4037b8:	83 c7 01             	add    $0x1,%edi
  4037bb:	e8 b0 da ff ff       	call   401270 <srandom@plt>
  4037c0:	e8 cb db ff ff       	call   401390 <random@plt>
  4037c5:	48 89 c7             	mov    %rax,%rdi
  4037c8:	89 c3                	mov    %eax,%ebx
  4037ca:	e8 b0 ff ff ff       	call   40377f <check>
  4037cf:	85 c0                	test   %eax,%eax
  4037d1:	74 ed                	je     4037c0 <gencookie+0xd>
  4037d3:	89 d8                	mov    %ebx,%eax
  4037d5:	5b                   	pop    %rbx
  4037d6:	c3                   	ret    
  4037d7:	66 0f 1f 84 00 00 00 	nopw   0x0(%rax,%rax,1)
  4037de:	00 00 

00000000004037e0 <__libc_csu_init>:
  4037e0:	f3 0f 1e fa          	endbr64 
  4037e4:	41 57                	push   %r15
  4037e6:	4c 8d 3d 23 36 00 00 	lea    0x3623(%rip),%r15        # 406e10 <__frame_dummy_init_array_entry>
  4037ed:	41 56                	push   %r14
  4037ef:	49 89 d6             	mov    %rdx,%r14
  4037f2:	41 55                	push   %r13
  4037f4:	49 89 f5             	mov    %rsi,%r13
  4037f7:	41 54                	push   %r12
  4037f9:	41 89 fc             	mov    %edi,%r12d
  4037fc:	55                   	push   %rbp
  4037fd:	48 8d 2d 14 36 00 00 	lea    0x3614(%rip),%rbp        # 406e18 <__do_global_dtors_aux_fini_array_entry>
  403804:	53                   	push   %rbx
  403805:	4c 29 fd             	sub    %r15,%rbp
  403808:	48 83 ec 08          	sub    $0x8,%rsp
  40380c:	e8 ef d7 ff ff       	call   401000 <_init>
  403811:	48 c1 fd 03          	sar    $0x3,%rbp
  403815:	74 1f                	je     403836 <__libc_csu_init+0x56>
  403817:	31 db                	xor    %ebx,%ebx
  403819:	0f 1f 80 00 00 00 00 	nopl   0x0(%rax)
  403820:	4c 89 f2             	mov    %r14,%rdx
  403823:	4c 89 ee             	mov    %r13,%rsi
  403826:	44 89 e7             	mov    %r12d,%edi
  403829:	41 ff 14 df          	call   *(%r15,%rbx,8)
  40382d:	48 83 c3 01          	add    $0x1,%rbx
  403831:	48 39 dd             	cmp    %rbx,%rbp
  403834:	75 ea                	jne    403820 <__libc_csu_init+0x40>
  403836:	48 83 c4 08          	add    $0x8,%rsp
  40383a:	5b                   	pop    %rbx
  40383b:	5d                   	pop    %rbp
  40383c:	41 5c                	pop    %r12
  40383e:	41 5d                	pop    %r13
  403840:	41 5e                	pop    %r14
  403842:	41 5f                	pop    %r15
  403844:	c3                   	ret    
  403845:	66 66 2e 0f 1f 84 00 	data16 cs nopw 0x0(%rax,%rax,1)
  40384c:	00 00 00 00 

0000000000403850 <__libc_csu_fini>:
  403850:	f3 0f 1e fa          	endbr64 
  403854:	c3                   	ret    

Disassembly of section .fini:

0000000000403858 <_fini>:
  403858:	f3 0f 1e fa          	endbr64 
  40385c:	48 83 ec 08          	sub    $0x8,%rsp
  403860:	48 83 c4 08          	add    $0x8,%rsp
  403864:	c3                   	ret    
